{
   <insert_a_suppression_name_here>
   Memcheck:Addr4
   fun:_pthread_wqthread_setup
   fun:_pthread_wqthread
   fun:start_wqthread
}
{
   <insert_a_suppression_name_here>
   Memcheck:Leak
   match-leak-kinds: reachable
   fun:malloc
   fun:strdup
   fun:__si_module_static_ds_block_invoke
   fun:_dispatch_client_callout
   fun:_dispatch_once_callout
   fun:si_module_static_ds
   fun:si_module_with_name
   fun:si_module_config_modules_for_category
   fun:__si_module_static_search_block_invoke
   fun:_dispatch_client_callout
   fun:_dispatch_once_callout
   fun:si_module_static_search
}
{
   <insert_a_suppression_name_here>
   Memcheck:Leak
   match-leak-kinds: reachable
   fun:malloc
   fun:LI_get_thread_info
   fun:LI_set_thread_item
   fun:getpwuid
   fun:-[_CFXPreferences(SearchListAdditions) withSuiteSearchListForIdentifier:user:locked:perform:]
   fun:_CFURLExists
   fun:-[CFPrefsSearchListSource copyCloudConfigurationWithURL:outConfigFileSource:outStoreName:]
   fun:_CFPrefsExtractQuadrupleFromPathIfPossible
   fun:_CFPrefsExtractQuadrupleFromPathIfPossible
   fun:__destroy_helper_block_e8_32o40r48r
   fun:__CFStringAppendFormatCore
   fun:__CFStringAppendFormatCore
}
{
   <insert_a_suppression_name_here>
   Memcheck:Leak
   match-leak-kinds: reachable
   fun:malloc
   fun:strdup
   fun:__si_module_static_mdns_block_invoke
   fun:_dispatch_client_callout
   fun:_dispatch_once_callout
   fun:si_module_static_mdns
   fun:si_module_with_name
   fun:si_module_config_modules_for_category
   fun:__si_module_static_search_block_invoke
   fun:_dispatch_client_callout
   fun:_dispatch_once_callout
   fun:si_module_static_search
}
{
   <insert_a_suppression_name_here>
   Memcheck:Leak
   match-leak-kinds: reachable
   fun:malloc
   fun:strdup
   fun:__si_module_static_file_block_invoke
   fun:_dispatch_client_callout
   fun:_dispatch_once_callout
   fun:si_module_static_file
   fun:si_module_with_name
   fun:si_module_config_modules_for_category
   fun:__si_module_static_search_block_invoke
   fun:_dispatch_client_callout
   fun:_dispatch_once_callout
   fun:si_module_static_search
}
{
   <insert_a_suppression_name_here>
   Memcheck:Leak
   match-leak-kinds: reachable
   fun:malloc
   fun:strdup
   fun:__si_module_static_cache_block_invoke
   fun:_dispatch_client_callout
   fun:_dispatch_once_callout
   fun:si_module_static_cache
   fun:si_module_with_name
   fun:si_module_config_modules_for_category
   fun:__si_module_static_search_block_invoke
   fun:_dispatch_client_callout
   fun:_dispatch_once_callout
   fun:si_module_static_search
}
{
   <insert_a_suppression_name_here>
   Memcheck:Leak
   match-leak-kinds: reachable
   fun:malloc
   fun:strdup
   fun:__si_module_static_search_block_invoke
   fun:_dispatch_client_callout
   fun:_dispatch_once_callout
   fun:si_module_static_search
   fun:si_module_with_name
   fun:si_search
   fun:getpwuid_r
   fun:_CFRuntimeBridgeClasses
   fun:__CFInitialize
   fun:_ZN16ImageLoaderMachO11doImageInitERKN11ImageLoader11LinkContextE
}
{
   <insert_a_suppression_name_here>
   Memcheck:Leak
   match-leak-kinds: reachable
   fun:calloc
   fun:_xpc_calloc
   fun:_xpc_serializer_append_port
   fun:_xpc_mach_send_serialize
   fun:_xpc_dictionary_serialize_apply
   fun:_xpc_dictionary_apply_node_f
   fun:_xpc_dictionary_serialize
   fun:_xpc_serializer_pack
   fun:_xpc_pipe_pack_message
   fun:_xpc_pipe_routine
   fun:xpc_pipe_routine_with_flags
   fun:_xpc_interface_routine
}
{
   <insert_a_suppression_name_here>
   Memcheck:Leak
   match-leak-kinds: reachable
   fun:malloc
   fun:_ZL33objc_initializeClassPair_internalP10objc_classPKcS0_S0_
   fun:class_setVersion
   fun:__CFDictionaryCreateGeneric
   fun:_CFStringGetUserDefaultEncoding
   fun:_ZN16ImageLoaderMachO11doImageInitERKN11ImageLoader11LinkContextE
   fun:_ZN16ImageLoaderMachO16doInitializationERKN11ImageLoader11LinkContextE
   fun:_ZN11ImageLoader23recursiveInitializationERKNS_11LinkContextEjPKcRNS_21InitializerTimingListERNS_15UninitedUpwardsE
   fun:_ZN11ImageLoader23recursiveInitializationERKNS_11LinkContextEjPKcRNS_21InitializerTimingListERNS_15UninitedUpwardsE
   fun:_ZN11ImageLoader23recursiveInitializationERKNS_11LinkContextEjPKcRNS_21InitializerTimingListERNS_15UninitedUpwardsE
   fun:_ZN11ImageLoader23recursiveInitializationERKNS_11LinkContextEjPKcRNS_21InitializerTimingListERNS_15UninitedUpwardsE
   fun:_ZN11ImageLoader23recursiveInitializationERKNS_11LinkContextEjPKcRNS_21InitializerTimingListERNS_15UninitedUpwardsE
}
{
   <insert_a_suppression_name_here>
   Memcheck:Leak
   match-leak-kinds: reachable
   fun:malloc
   fun:-[__NSDictionaryM __setObject:forKey:]
   fun:-[NSUserDefaults(NSUserDefaults) init]
   fun:+[NSUserDefaults(NSUserDefaults) standardUserDefaults]
   fun:+[NSApplication initialize]
   fun:_objc_addWillInitializeClassFunc
   fun:_ZN13list_array_ttI8method_t13method_list_t24method_list_t_authed_ptrE11attachListsEPKPS1_j
   fun:_ZL24realizeClassWithoutSwiftP10objc_classS0_
   fun:-[NSObject dealloc]
   fun:lookUpImpOrForward
   fun:mlx_init
   fun:main
}
{
   <insert_a_suppression_name_here>
   Memcheck:Leak
   match-leak-kinds: reachable
   fun:malloc
   fun:LI_get_thread_info
   fun:LI_set_thread_item
   fun:getpwuid
   fun:-[_CFXPreferences(SearchListAdditions) withSuiteSearchListForIdentifier:user:locked:perform:]
   fun:_CFURLExists
   fun:-[CFPrefsSearchListSource copyCloudConfigurationWithURL:outConfigFileSource:outStoreName:]
   fun:_CFPrefsExtractQuadrupleFromPathIfPossible
   fun:_CFPrefsExtractQuadrupleFromPathIfPossible
   fun:__destroy_helper_block_e8_32o40r48r
   fun:__CFStringAppendFormatCore
   fun:__CFStringAppendFormatCore
}
{
   <insert_a_suppression_name_here>
   Memcheck:Leak
   match-leak-kinds: reachable
   fun:calloc
   fun:si_module_config_modules_for_category
   fun:__si_module_static_search_block_invoke
   fun:_dispatch_client_callout
   fun:_dispatch_once_callout
   fun:si_module_static_search
   fun:si_module_with_name
   fun:si_search
   fun:getpwuid_r
   fun:_CFRuntimeBridgeClasses
   fun:__CFInitialize
   fun:_ZN16ImageLoaderMachO11doImageInitERKN11ImageLoader11LinkContextE
}
{
   <insert_a_suppression_name_here>
   Memcheck:Leak
   match-leak-kinds: reachable
   fun:calloc
   fun:__si_module_static_ds_block_invoke
   fun:_dispatch_client_callout
   fun:_dispatch_once_callout
   fun:si_module_static_ds
   fun:si_module_with_name
   fun:si_module_config_modules_for_category
   fun:__si_module_static_search_block_invoke
   fun:_dispatch_client_callout
   fun:_dispatch_once_callout
   fun:si_module_static_search
   fun:si_module_with_name
}
{
   <insert_a_suppression_name_here>
   Memcheck:Leak
   match-leak-kinds: reachable
   fun:calloc
   fun:_ZNK8method_t11remappedImpEb
   fun:_ZN13list_array_ttI10property_t15property_list_t6RawPtrE11attachListsEPKPS1_j
   fun:_ZNK13method_list_t9duplicateEv
   fun:_ZN10class_rw_t8extAllocEPK10class_ro_tb
   fun:_ZN10class_rw_t8extAllocEPK10class_ro_tb
   fun:_ZN10class_rw_t8extAllocEPK10class_ro_tb
   fun:_ZL24realizeClassWithoutSwiftP10objc_classS0_
   fun:-[NSObject dealloc]
   fun:lookUpImpOrForward
   fun:_xpc_pipe_routine
   fun:xpc_pipe_routine_with_flags
}
{
   <insert_a_suppression_name_here>
   Memcheck:Leak
   match-leak-kinds: reachable
   fun:calloc
   fun:objc_msgSend_stret
   fun:__CFGetConverter
   fun:CFStringGetSystemEncoding
   fun:__exceptionInit
   fun:_ZN16ImageLoaderMachO11doImageInitERKN11ImageLoader11LinkContextE
   fun:_ZN16ImageLoaderMachO16doInitializationERKN11ImageLoader11LinkContextE
   fun:_ZN11ImageLoader23recursiveInitializationERKNS_11LinkContextEjPKcRNS_21InitializerTimingListERNS_15UninitedUpwardsE
   fun:_ZN11ImageLoader23recursiveInitializationERKNS_11LinkContextEjPKcRNS_21InitializerTimingListERNS_15UninitedUpwardsE
   fun:_ZN11ImageLoader23recursiveInitializationERKNS_11LinkContextEjPKcRNS_21InitializerTimingListERNS_15UninitedUpwardsE
   fun:_ZN11ImageLoader23recursiveInitializationERKNS_11LinkContextEjPKcRNS_21InitializerTimingListERNS_15UninitedUpwardsE
   fun:_ZN11ImageLoader23recursiveInitializationERKNS_11LinkContextEjPKcRNS_21InitializerTimingListERNS_15UninitedUpwardsE
}
{
   <insert_a_suppression_name_here>
   Memcheck:Leak
   match-leak-kinds: reachable
   fun:malloc
   fun:parseXMLElement
   fun:-[NSProcessInfo arguments]
   fun:-[NSUserDefaults(NSUserDefaults) init]
   fun:+[NSUserDefaults(NSUserDefaults) standardUserDefaults]
   fun:+[NSApplication initialize]
   fun:_objc_addWillInitializeClassFunc
   fun:_ZN13list_array_ttI8method_t13method_list_t24method_list_t_authed_ptrE11attachListsEPKPS1_j
   fun:_ZL24realizeClassWithoutSwiftP10objc_classS0_
   fun:-[NSObject dealloc]
   fun:lookUpImpOrForward
   fun:mlx_init
}
{
   <insert_a_suppression_name_here>
   Memcheck:Leak
   match-leak-kinds: reachable
   fun:calloc
   fun:objc_msgSend_stret
   fun:__CFGetConverter
   fun:CFStringGetSystemEncoding
   fun:-[_CFXPreferences replaceValuesInVolatileSourceNamed:withValues:]
   fun:-[NSProcessInfo arguments]
   fun:-[NSUserDefaults(NSUserDefaults) init]
   fun:+[NSUserDefaults(NSUserDefaults) standardUserDefaults]
   fun:+[NSApplication initialize]
   fun:_objc_addWillInitializeClassFunc
   fun:_ZN13list_array_ttI8method_t13method_list_t24method_list_t_authed_ptrE11attachListsEPKPS1_j
   fun:_ZL24realizeClassWithoutSwiftP10objc_classS0_
}
{
   <insert_a_suppression_name_here>
   Memcheck:Leak
   match-leak-kinds: reachable
   fun:calloc
   fun:objc_msgSend_stret
   fun:__CFGetConverter
   fun:CFStringGetSystemEncoding
   fun:-[_CFXPreferences replaceValuesInVolatileSourceNamed:withValues:]
   fun:-[NSUserDefaults(NSUserDefaults) init]
   fun:+[NSUserDefaults(NSUserDefaults) standardUserDefaults]
   fun:+[NSApplication initialize]
   fun:_objc_addWillInitializeClassFunc
   fun:_ZN13list_array_ttI8method_t13method_list_t24method_list_t_authed_ptrE11attachListsEPKPS1_j
   fun:_ZL24realizeClassWithoutSwiftP10objc_classS0_
   fun:-[NSObject dealloc]
}
{
   <insert_a_suppression_name_here>
   Memcheck:Leak
   match-leak-kinds: reachable
   fun:malloc_zone_malloc
   fun:CFUniCharGetUnicodePropertyDataForPlane
   fun:CFUniCharDecomposeWithErrorLocation
   fun:_CFBundleCopyBundleURLForExecutableURL
   fun:CreateStringFromFileSystemRepresentationByAddingPercentEscapes
   fun:CreateStringFromFileSystemRepresentationByAddingPercentEscapes
   fun:_CFURLCreateWithFileSystemPath
   fun:CFURLGetString
   fun:CFURLCopyAbsoluteURL
   fun:CFStringFindWithOptionsAndLocale
   fun:-[CFPrefsSource alreadylocked_copyKeyList]
   fun:-[CFPrefsSearchListSource addManagedSourceForIdentifier:user:]
}
{
   <insert_a_suppression_name_here>
   Memcheck:Leak
   match-leak-kinds: reachable
   fun:calloc
   fun:LI_get_thread_info
   fun:LI_set_thread_item
   fun:getpwuid
   fun:-[_CFXPreferences(SearchListAdditions) withSuiteSearchListForIdentifier:user:locked:perform:]
   fun:_CFURLExists
   fun:-[CFPrefsSearchListSource copyCloudConfigurationWithURL:outConfigFileSource:outStoreName:]
   fun:_CFPrefsExtractQuadrupleFromPathIfPossible
   fun:_CFPrefsExtractQuadrupleFromPathIfPossible
   fun:__destroy_helper_block_e8_32o40r48r
   fun:__CFStringAppendFormatCore
   fun:__CFStringAppendFormatCore
}
{
   <insert_a_suppression_name_here>
   Memcheck:Leak
   match-leak-kinds: reachable
   fun:malloc_zone_calloc
   fun:__CFBasicHashRehash
   fun:__CFBasicHashAddValue
   fun:CFBasicHashSetValue
   fun:____NSThreads_block_invoke
   fun:_dispatch_client_callout
   fun:_dispatch_once_callout
   fun:_NSThreadGet0
   fun:_NSInitializePlatform
   fun:objc_msgLookup_fpret
   fun:_ZN4dyldL12notifySingleE17dyld_image_statesPK11ImageLoaderPNS1_21InitializerTimingListE
   fun:_ZN11ImageLoader23recursiveInitializationERKNS_11LinkContextEjPKcRNS_21InitializerTimingListERNS_15UninitedUpwardsE
}
{
   <insert_a_suppression_name_here>
   Memcheck:Leak
   match-leak-kinds: reachable
   fun:malloc_zone_calloc
   fun:__CFBasicHashRehash
   fun:__CFBasicHashAddValue
   fun:CFBasicHashSetValue
   fun:____NSThreads_block_invoke
   fun:_dispatch_client_callout
   fun:_dispatch_once_callout
   fun:_NSThreadGet0
   fun:_NSInitializePlatform
   fun:objc_msgLookup_fpret
   fun:_ZN4dyldL12notifySingleE17dyld_image_statesPK11ImageLoaderPNS1_21InitializerTimingListE
   fun:_ZN11ImageLoader23recursiveInitializationERKNS_11LinkContextEjPKcRNS_21InitializerTimingListERNS_15UninitedUpwardsE
}
{
   <insert_a_suppression_name_here>
   Memcheck:Leak
   match-leak-kinds: reachable
   fun:calloc
   fun:_LI_data_get
   fun:LI_get_thread_info
   fun:LI_set_thread_item
   fun:getpwuid
   fun:-[_CFXPreferences(SearchListAdditions) withSuiteSearchListForIdentifier:user:locked:perform:]
   fun:_CFURLExists
   fun:-[CFPrefsSearchListSource copyCloudConfigurationWithURL:outConfigFileSource:outStoreName:]
   fun:_CFPrefsExtractQuadrupleFromPathIfPossible
   fun:_CFPrefsExtractQuadrupleFromPathIfPossible
   fun:__destroy_helper_block_e8_32o40r48r
   fun:__CFStringAppendFormatCore
}
{
   <insert_a_suppression_name_here>
   Memcheck:Leak
   match-leak-kinds: reachable
   fun:malloc
   fun:strdup
   fun:xpc_string_create
   fun:xpc_dictionary_set_string
   fun:-[CFPrefsSearchListSource synchronouslySendDaemonMessage:andAgentMessage:andDirectMessage:replyHandler:]
   fun:-[_CFXPreferences currentUserHasInvalidHomeDirectory]
   fun:_CFPrefsEncodeValueIntoMessage
   fun:-[CFPrefsPlistSource createSynchronizeMessage]
   fun:-[CFPrefsPlistSource volatilizeIfInvalidHomeDir]
   fun:__isOnDirectModeBlackList_block_invoke
   fun:-[CFPrefsPlistSource createRequestNewContentMessageForDaemon:]
   fun:generationCountFromListOfSources
}
{
   <insert_a_suppression_name_here>
   Memcheck:Leak
   match-leak-kinds: possible
   fun:malloc
   fun:_ZL24realizeClassWithoutSwiftP10objc_classS0_
   fun:_ZL32adjustCustomFlagsForMethodChangeP10objc_classP8method_t
   fun:_ZL32adjustCustomFlagsForMethodChangeP10objc_classP8method_t
   fun:_ZL16attachCategoriesP10objc_classPK21locstamped_category_tji
   fun:_ZN10objc_class11mangledNameEv
   fun:_ZL16addRemappedClassP10objc_classS0_
   fun:objc_initializeClassPair
   fun:objc_registerClassPair
   fun:__CFStringCreateImmutableFunnel3
   fun:__CFInitialize
   fun:_ZN16ImageLoaderMachO11doImageInitERKN11ImageLoader11LinkContextE
}
{
   <insert_a_suppression_name_here>
   Memcheck:Leak
   match-leak-kinds: possible
   fun:malloc
   fun:_ZL24realizeClassWithoutSwiftP10objc_classS0_
   fun:_ZL32adjustCustomFlagsForMethodChangeP10objc_classP8method_t
   fun:_ZL32adjustCustomFlagsForMethodChangeP10objc_classP8method_t
   fun:_ZL16attachCategoriesP10objc_classPK21locstamped_category_tji
   fun:_ZL16addRemappedClassP10objc_classS0_
   fun:objc_initializeClassPair
   fun:objc_registerClassPair
   fun:__CFStringCreateImmutableFunnel3
   fun:__CFInitialize
   fun:_ZN16ImageLoaderMachO11doImageInitERKN11ImageLoader11LinkContextE
   fun:_ZN16ImageLoaderMachO16doInitializationERKN11ImageLoader11LinkContextE
}
{
   <insert_a_suppression_name_here>
   Memcheck:Leak
   match-leak-kinds: possible
   fun:malloc
   fun:_ZL24realizeClassWithoutSwiftP10objc_classS0_
   fun:_ZL32adjustCustomFlagsForMethodChangeP10objc_classP8method_t
   fun:_ZL32adjustCustomFlagsForMethodChangeP10objc_classP8method_t
   fun:_ZL16attachCategoriesP10objc_classPK21locstamped_category_tji
   fun:_ZN10objc_class11mangledNameEv
   fun:_ZN10objc_class11mangledNameEv
   fun:_ZL16addRemappedClassP10objc_classS0_
   fun:objc_initializeClassPair
   fun:objc_registerClassPair
   fun:__CFStringCreateImmutableFunnel3
   fun:__CFInitialize
}
{
   <insert_a_suppression_name_here>
   Memcheck:Leak
   match-leak-kinds: possible
   fun:malloc
   fun:_ZL24realizeClassWithoutSwiftP10objc_classS0_
   fun:_ZL32adjustCustomFlagsForMethodChangeP10objc_classP8method_t
   fun:_ZL32adjustCustomFlagsForMethodChangeP10objc_classP8method_t
   fun:_ZL16attachCategoriesP10objc_classPK21locstamped_category_tji
   fun:_ZN10objc_class11mangledNameEv
   fun:_ZN10objc_class11mangledNameEv
   fun:_ZL16addRemappedClassP10objc_classS0_
   fun:objc_initializeClassPair
   fun:objc_registerClassPair
   fun:__CFStringCreateImmutableFunnel3
   fun:__CFInitialize
}
{
   <insert_a_suppression_name_here>
   Memcheck:Leak
   match-leak-kinds: possible
   fun:malloc
   fun:_ZL24realizeClassWithoutSwiftP10objc_classS0_
   fun:_ZL32adjustCustomFlagsForMethodChangeP10objc_classP8method_t
   fun:_ZL32adjustCustomFlagsForMethodChangeP10objc_classP8method_t
   fun:_ZL16attachCategoriesP10objc_classPK21locstamped_category_tji
   fun:_ZN10objc_class11mangledNameEv
   fun:_ZL16addRemappedClassP10objc_classS0_
   fun:objc_initializeClassPair
   fun:objc_registerClassPair
   fun:__CFStringCreateImmutableFunnel3
   fun:__CFInitialize
   fun:_ZN16ImageLoaderMachO11doImageInitERKN11ImageLoader11LinkContextE
}
{
   <insert_a_suppression_name_here>
   Memcheck:Leak
   match-leak-kinds: possible
   fun:malloc
   fun:_ZL24realizeClassWithoutSwiftP10objc_classS0_
   fun:_ZL32adjustCustomFlagsForMethodChangeP10objc_classP8method_t
   fun:_ZL32adjustCustomFlagsForMethodChangeP10objc_classP8method_t
   fun:_ZL16attachCategoriesP10objc_classPK21locstamped_category_tji
   fun:_ZN10objc_class11mangledNameEv
   fun:_ZL16addRemappedClassP10objc_classS0_
   fun:objc_initializeClassPair
   fun:objc_registerClassPair
   fun:__CFStringCreateImmutableFunnel3
   fun:__CFInitialize
   fun:_ZN16ImageLoaderMachO11doImageInitERKN11ImageLoader11LinkContextE
}
{
   <insert_a_suppression_name_here>
   Memcheck:Leak
   match-leak-kinds: possible
   fun:malloc
   fun:_ZL24realizeClassWithoutSwiftP10objc_classS0_
   fun:_ZL32adjustCustomFlagsForMethodChangeP10objc_classP8method_t
   fun:_ZL32adjustCustomFlagsForMethodChangeP10objc_classP8method_t
   fun:_ZL16attachCategoriesP10objc_classPK21locstamped_category_tji
   fun:_ZN10objc_class11mangledNameEv
   fun:_ZL16addRemappedClassP10objc_classS0_
   fun:objc_initializeClassPair
   fun:objc_registerClassPair
   fun:__CFStringCreateImmutableFunnel3
   fun:__CFInitializeLinkCheck
   fun:_ZN16ImageLoaderMachO11doImageInitERKN11ImageLoader11LinkContextE
}
{
   <insert_a_suppression_name_here>
   Memcheck:Leak
   match-leak-kinds: possible
   fun:malloc
   fun:_ZL24realizeClassWithoutSwiftP10objc_classS0_
   fun:_ZL32adjustCustomFlagsForMethodChangeP10objc_classP8method_t
   fun:_ZL32adjustCustomFlagsForMethodChangeP10objc_classP8method_t
   fun:_ZL16attachCategoriesP10objc_classPK21locstamped_category_tji
   fun:_ZL16addRemappedClassP10objc_classS0_
   fun:objc_initializeClassPair
   fun:_NSToDoAtProcessStart
   fun:_NSInitializePlatform
   fun:objc_msgLookup_fpret
   fun:_ZN4dyldL12notifySingleE17dyld_image_statesPK11ImageLoaderPNS1_21InitializerTimingListE
   fun:_ZN11ImageLoader23recursiveInitializationERKNS_11LinkContextEjPKcRNS_21InitializerTimingListERNS_15UninitedUpwardsE
}
{
   <insert_a_suppression_name_here>
   Memcheck:Leak
   match-leak-kinds: possible
   fun:malloc
   fun:_ZL24realizeClassWithoutSwiftP10objc_classS0_
   fun:_ZL32adjustCustomFlagsForMethodChangeP10objc_classP8method_t
   fun:_ZL32adjustCustomFlagsForMethodChangeP10objc_classP8method_t
   fun:_ZL16attachCategoriesP10objc_classPK21locstamped_category_tji
   fun:_ZL16addRemappedClassP10objc_classS0_
   fun:objc_initializeClassPair
   fun:_NSToDoAtProcessStart
   fun:_NSInitializePlatform
   fun:objc_msgLookup_fpret
   fun:_ZN4dyldL12notifySingleE17dyld_image_statesPK11ImageLoaderPNS1_21InitializerTimingListE
   fun:_ZN11ImageLoader23recursiveInitializationERKNS_11LinkContextEjPKcRNS_21InitializerTimingListERNS_15UninitedUpwardsE
}
{
   <insert_a_suppression_name_here>
   Memcheck:Leak
   match-leak-kinds: possible
   fun:malloc
   fun:_ZL24realizeClassWithoutSwiftP10objc_classS0_
   fun:_ZL32adjustCustomFlagsForMethodChangeP10objc_classP8method_t
   fun:_ZL32adjustCustomFlagsForMethodChangeP10objc_classP8method_t
   fun:_ZL16attachCategoriesP10objc_classPK21locstamped_category_tji
   fun:_ZN10objc_class11mangledNameEv
   fun:_ZN10objc_class11mangledNameEv
   fun:_ZL16addRemappedClassP10objc_classS0_
   fun:objc_initializeClassPair
   fun:_NSToDoAtProcessStart
   fun:_NSInitializePlatform
   fun:objc_msgLookup_fpret
}
{
   <insert_a_suppression_name_here>
   Memcheck:Leak
   match-leak-kinds: possible
   fun:malloc
   fun:_ZL24realizeClassWithoutSwiftP10objc_classS0_
   fun:_ZL32adjustCustomFlagsForMethodChangeP10objc_classP8method_t
   fun:_ZL32adjustCustomFlagsForMethodChangeP10objc_classP8method_t
   fun:_ZL16attachCategoriesP10objc_classPK21locstamped_category_tji
   fun:_ZN10objc_class11mangledNameEv
   fun:_ZL16addRemappedClassP10objc_classS0_
   fun:objc_initializeClassPair
   fun:_NSToDoAtProcessStart
   fun:_NSInitializePlatform
   fun:objc_msgLookup_fpret
   fun:_ZN4dyldL12notifySingleE17dyld_image_statesPK11ImageLoaderPNS1_21InitializerTimingListE
}
{
   <insert_a_suppression_name_here>
   Memcheck:Leak
   match-leak-kinds: possible
   fun:malloc
   fun:_ZL24realizeClassWithoutSwiftP10objc_classS0_
   fun:_ZL32adjustCustomFlagsForMethodChangeP10objc_classP8method_t
   fun:_ZL32adjustCustomFlagsForMethodChangeP10objc_classP8method_t
   fun:_ZL16attachCategoriesP10objc_classPK21locstamped_category_tji
   fun:_ZN10objc_class11mangledNameEv
   fun:_ZL16addRemappedClassP10objc_classS0_
   fun:objc_initializeClassPair
   fun:_NSToDoAtProcessStart
   fun:_NSInitializePlatform
   fun:objc_msgLookup_fpret
   fun:_ZN4dyldL12notifySingleE17dyld_image_statesPK11ImageLoaderPNS1_21InitializerTimingListE
}
{
   <insert_a_suppression_name_here>
   Memcheck:Leak
   match-leak-kinds: possible
   fun:malloc
   fun:_ZL24realizeClassWithoutSwiftP10objc_classS0_
   fun:_ZL32adjustCustomFlagsForMethodChangeP10objc_classP8method_t
   fun:_ZL32adjustCustomFlagsForMethodChangeP10objc_classP8method_t
   fun:_ZL16attachCategoriesP10objc_classPK21locstamped_category_tji
   fun:_ZN10objc_class11mangledNameEv
   fun:_ZL16addRemappedClassP10objc_classS0_
   fun:objc_initializeClassPair
   fun:_NSToDoAtProcessStart
   fun:_NSInitializePlatform
   fun:objc_msgLookup_fpret
   fun:_ZN4dyldL12notifySingleE17dyld_image_statesPK11ImageLoaderPNS1_21InitializerTimingListE
}
{
   <insert_a_suppression_name_here>
   Memcheck:Leak
   match-leak-kinds: possible
   fun:malloc
   fun:_ZL24realizeClassWithoutSwiftP10objc_classS0_
   fun:_ZL32adjustCustomFlagsForMethodChangeP10objc_classP8method_t
   fun:_ZL32adjustCustomFlagsForMethodChangeP10objc_classP8method_t
   fun:_ZL16attachCategoriesP10objc_classPK21locstamped_category_tji
   fun:_ZN10objc_class11mangledNameEv
   fun:_ZL16addRemappedClassP10objc_classS0_
   fun:objc_initializeClassPair
   fun:_NSToDoAtProcessStart
   fun:_NSInitializePlatform
   fun:objc_msgLookup_fpret
   fun:_ZN4dyldL12notifySingleE17dyld_image_statesPK11ImageLoaderPNS1_21InitializerTimingListE
}
{
   <insert_a_suppression_name_here>
   Memcheck:Leak
   match-leak-kinds: possible
   fun:malloc
   fun:_ZL24realizeClassWithoutSwiftP10objc_classS0_
   fun:_ZL32adjustCustomFlagsForMethodChangeP10objc_classP8method_t
   fun:_ZL32adjustCustomFlagsForMethodChangeP10objc_classP8method_t
   fun:_ZL16attachCategoriesP10objc_classPK21locstamped_category_tji
   fun:_ZL16addRemappedClassP10objc_classS0_
   fun:objc_initializeClassPair
   fun:_NSToDoAtProcessStart
   fun:_NSInitializePlatform
   fun:objc_msgLookup_fpret
   fun:_ZN4dyldL12notifySingleE17dyld_image_statesPK11ImageLoaderPNS1_21InitializerTimingListE
   fun:_ZN11ImageLoader23recursiveInitializationERKNS_11LinkContextEjPKcRNS_21InitializerTimingListERNS_15UninitedUpwardsE
}
{
   <insert_a_suppression_name_here>
   Memcheck:Leak
   match-leak-kinds: reachable
   fun:calloc
   fun:_ZN4objc8DenseMapIP10objc_classS2_NS_17DenseMapValueInfoIS2_EENS_12DenseMapInfoIS2_EENS_6detail12DenseMapPairIS2_S2_EEE4growEj
   fun:_ZL16addRemappedClassP10objc_classS0_
   fun:objc_initializeClassPair
   fun:__CFInitialize
   fun:_dispatch_client_callout
   fun:_dispatch_once_callout
   fun:__CFInitialize
   fun:objc_msgLookup_fpret
   fun:_ZN4dyldL12notifySingleE17dyld_image_statesPK11ImageLoaderPNS1_21InitializerTimingListE
   fun:_ZN11ImageLoader23recursiveInitializationERKNS_11LinkContextEjPKcRNS_21InitializerTimingListERNS_15UninitedUpwardsE
   fun:_ZN11ImageLoader23recursiveInitializationERKNS_11LinkContextEjPKcRNS_21InitializerTimingListERNS_15UninitedUpwardsE
}
{
   <insert_a_suppression_name_here>
   Memcheck:Leak
   match-leak-kinds: reachable
   fun:calloc
   fun:_ZN4objc8DenseMapIP10objc_classS2_NS_17DenseMapValueInfoIS2_EENS_12DenseMapInfoIS2_EENS_6detail12DenseMapPairIS2_S2_EEE4growEj
   fun:_ZN10objc_class11mangledNameEv
   fun:_ZL16addRemappedClassP10objc_classS0_
   fun:objc_initializeClassPair
   fun:__CFInitialize
   fun:_dispatch_client_callout
   fun:_dispatch_once_callout
   fun:__CFInitialize
   fun:objc_msgLookup_fpret
   fun:_ZN4dyldL12notifySingleE17dyld_image_statesPK11ImageLoaderPNS1_21InitializerTimingListE
   fun:_ZN11ImageLoader23recursiveInitializationERKNS_11LinkContextEjPKcRNS_21InitializerTimingListERNS_15UninitedUpwardsE
}
{
   <insert_a_suppression_name_here>
   Memcheck:Leak
   match-leak-kinds: reachable
   fun:calloc
   fun:si_module_config_modules_for_category
   fun:__si_module_static_search_block_invoke
   fun:_dispatch_client_callout
   fun:_dispatch_once_callout
   fun:si_module_static_search
   fun:si_module_with_name
   fun:si_search
   fun:getpwuid_r
   fun:_CFRuntimeBridgeClasses
   fun:__CFInitialize
   fun:_ZN16ImageLoaderMachO11doImageInitERKN11ImageLoader11LinkContextE
}
{
   <insert_a_suppression_name_here>
   Memcheck:Leak
   match-leak-kinds: reachable
   fun:calloc
   fun:_ZL27method_t_remappedImp_nolockPK8method_t
   fun:_ZN13list_array_ttI10property_t15property_list_t6RawPtrE11attachListsEPKPS1_j
   fun:_ZNK13method_list_t9duplicateEv
   fun:_ZN10class_rw_t8extAllocEPK10class_ro_tb
   fun:_ZN10class_rw_t8extAllocEPK10class_ro_tb
   fun:_ZN10class_rw_t8extAllocEPK10class_ro_tb
   fun:_ZL24realizeClassWithoutSwiftP10objc_classS0_
   fun:-[NSObject dealloc]
   fun:lookUpImpOrForward
   fun:_xpc_pipe_routine
   fun:xpc_pipe_routine_with_flags
}
{
   <insert_a_suppression_name_here>
   Memcheck:Leak
   match-leak-kinds: reachable
   fun:calloc
   fun:_ZN4objc8DenseMapIP10objc_classS2_NS_17DenseMapValueInfoIS2_EENS_12DenseMapInfoIS2_EENS_6detail12DenseMapPairIS2_S2_EEE4growEj
   fun:_ZL16addRemappedClassP10objc_classS0_
   fun:objc_initializeClassPair
   fun:objc_registerClassPair
   fun:__CFStringCreateImmutableFunnel3
   fun:__CFInitialize
   fun:_ZN16ImageLoaderMachO11doImageInitERKN11ImageLoader11LinkContextE
   fun:_ZN16ImageLoaderMachO16doInitializationERKN11ImageLoader11LinkContextE
   fun:_ZN11ImageLoader23recursiveInitializationERKNS_11LinkContextEjPKcRNS_21InitializerTimingListERNS_15UninitedUpwardsE
   fun:_ZN11ImageLoader23recursiveInitializationERKNS_11LinkContextEjPKcRNS_21InitializerTimingListERNS_15UninitedUpwardsE
   fun:_ZN11ImageLoader23recursiveInitializationERKNS_11LinkContextEjPKcRNS_21InitializerTimingListERNS_15UninitedUpwardsE
}
{
   <insert_a_suppression_name_here>
   Memcheck:Leak
   match-leak-kinds: reachable
   fun:calloc
   fun:_ZN4objc8DenseMapIP10objc_classS2_NS_17DenseMapValueInfoIS2_EENS_12DenseMapInfoIS2_EENS_6detail12DenseMapPairIS2_S2_EEE4growEj
   fun:_ZL16addRemappedClassP10objc_classS0_
   fun:objc_initializeClassPair
   fun:__CFInitialize
   fun:_ZN16ImageLoaderMachO11doImageInitERKN11ImageLoader11LinkContextE
   fun:_ZN16ImageLoaderMachO16doInitializationERKN11ImageLoader11LinkContextE
   fun:_ZN11ImageLoader23recursiveInitializationERKNS_11LinkContextEjPKcRNS_21InitializerTimingListERNS_15UninitedUpwardsE
   fun:_ZN11ImageLoader23recursiveInitializationERKNS_11LinkContextEjPKcRNS_21InitializerTimingListERNS_15UninitedUpwardsE
   fun:_ZN11ImageLoader23recursiveInitializationERKNS_11LinkContextEjPKcRNS_21InitializerTimingListERNS_15UninitedUpwardsE
   fun:_ZN11ImageLoader23recursiveInitializationERKNS_11LinkContextEjPKcRNS_21InitializerTimingListERNS_15UninitedUpwardsE
   fun:_ZN11ImageLoader23recursiveInitializationERKNS_11LinkContextEjPKcRNS_21InitializerTimingListERNS_15UninitedUpwardsE
}
{
   <insert_a_suppression_name_here>
   Memcheck:Leak
   match-leak-kinds: reachable
   fun:calloc
   fun:_ZN4objc8DenseMapIP10objc_classS2_NS_17DenseMapValueInfoIS2_EENS_12DenseMapInfoIS2_EENS_6detail12DenseMapPairIS2_S2_EEE4growEj
   fun:_ZN10objc_class11mangledNameEv
   fun:_ZL16addRemappedClassP10objc_classS0_
   fun:objc_initializeClassPair
   fun:__CFInitialize
   fun:_ZN16ImageLoaderMachO11doImageInitERKN11ImageLoader11LinkContextE
   fun:_ZN16ImageLoaderMachO16doInitializationERKN11ImageLoader11LinkContextE
   fun:_ZN11ImageLoader23recursiveInitializationERKNS_11LinkContextEjPKcRNS_21InitializerTimingListERNS_15UninitedUpwardsE
   fun:_ZN11ImageLoader23recursiveInitializationERKNS_11LinkContextEjPKcRNS_21InitializerTimingListERNS_15UninitedUpwardsE
   fun:_ZN11ImageLoader23recursiveInitializationERKNS_11LinkContextEjPKcRNS_21InitializerTimingListERNS_15UninitedUpwardsE
   fun:_ZN11ImageLoader23recursiveInitializationERKNS_11LinkContextEjPKcRNS_21InitializerTimingListERNS_15UninitedUpwardsE
}
{
   <insert_a_suppression_name_here>
   Memcheck:Leak
   match-leak-kinds: reachable
   fun:calloc
   fun:_ZN4objc8DenseMapIP10objc_classS2_NS_17DenseMapValueInfoIS2_EENS_12DenseMapInfoIS2_EENS_6detail12DenseMapPairIS2_S2_EEE4growEj
   fun:_ZN10objc_class11mangledNameEv
   fun:_ZN10objc_class11mangledNameEv
   fun:_ZL16addRemappedClassP10objc_classS0_
   fun:objc_initializeClassPair
   fun:__CFInitialize
   fun:_ZN16ImageLoaderMachO11doImageInitERKN11ImageLoader11LinkContextE
   fun:_ZN16ImageLoaderMachO16doInitializationERKN11ImageLoader11LinkContextE
   fun:_ZN11ImageLoader23recursiveInitializationERKNS_11LinkContextEjPKcRNS_21InitializerTimingListERNS_15UninitedUpwardsE
   fun:_ZN11ImageLoader23recursiveInitializationERKNS_11LinkContextEjPKcRNS_21InitializerTimingListERNS_15UninitedUpwardsE
   fun:_ZN11ImageLoader23recursiveInitializationERKNS_11LinkContextEjPKcRNS_21InitializerTimingListERNS_15UninitedUpwardsE
}
{
   <insert_a_suppression_name_here>
   Memcheck:Leak
   match-leak-kinds: reachable
   fun:calloc
   fun:_ZN4objc8DenseMapIP10objc_classS2_NS_17DenseMapValueInfoIS2_EENS_12DenseMapInfoIS2_EENS_6detail12DenseMapPairIS2_S2_EEE4growEj
   fun:_ZN10objc_class11mangledNameEv
   fun:_ZL16addRemappedClassP10objc_classS0_
   fun:objc_initializeClassPair
   fun:__CFInitialize
   fun:_ZN16ImageLoaderMachO11doImageInitERKN11ImageLoader11LinkContextE
   fun:_ZN16ImageLoaderMachO16doInitializationERKN11ImageLoader11LinkContextE
   fun:_ZN11ImageLoader23recursiveInitializationERKNS_11LinkContextEjPKcRNS_21InitializerTimingListERNS_15UninitedUpwardsE
   fun:_ZN11ImageLoader23recursiveInitializationERKNS_11LinkContextEjPKcRNS_21InitializerTimingListERNS_15UninitedUpwardsE
   fun:_ZN11ImageLoader23recursiveInitializationERKNS_11LinkContextEjPKcRNS_21InitializerTimingListERNS_15UninitedUpwardsE
   fun:_ZN11ImageLoader23recursiveInitializationERKNS_11LinkContextEjPKcRNS_21InitializerTimingListERNS_15UninitedUpwardsE
}
{
   <insert_a_suppression_name_here>
   Memcheck:Leak
   match-leak-kinds: reachable
   fun:calloc
   fun:_ZN4objc8DenseMapIP10objc_classS2_NS_17DenseMapValueInfoIS2_EENS_12DenseMapInfoIS2_EENS_6detail12DenseMapPairIS2_S2_EEE4growEj
   fun:_ZL16addRemappedClassP10objc_classS0_
   fun:objc_initializeClassPair
   fun:objc_registerClassPair
   fun:__CFStringCreateImmutableFunnel3
   fun:__CFInitialize
   fun:_ZN16ImageLoaderMachO11doImageInitERKN11ImageLoader11LinkContextE
   fun:_ZN16ImageLoaderMachO16doInitializationERKN11ImageLoader11LinkContextE
   fun:_ZN11ImageLoader23recursiveInitializationERKNS_11LinkContextEjPKcRNS_21InitializerTimingListERNS_15UninitedUpwardsE
   fun:_ZN11ImageLoader23recursiveInitializationERKNS_11LinkContextEjPKcRNS_21InitializerTimingListERNS_15UninitedUpwardsE
   fun:_ZN11ImageLoader23recursiveInitializationERKNS_11LinkContextEjPKcRNS_21InitializerTimingListERNS_15UninitedUpwardsE
}
{
   <insert_a_suppression_name_here>
   Memcheck:Leak
   match-leak-kinds: reachable
   fun:calloc
   fun:_ZN4objc8DenseMapIP10objc_classS2_NS_17DenseMapValueInfoIS2_EENS_12DenseMapInfoIS2_EENS_6detail12DenseMapPairIS2_S2_EEE4growEj
   fun:_ZN10objc_class11mangledNameEv
   fun:_ZL16addRemappedClassP10objc_classS0_
   fun:objc_initializeClassPair
   fun:objc_registerClassPair
   fun:__CFStringCreateImmutableFunnel3
   fun:__CFInitialize
   fun:_ZN16ImageLoaderMachO11doImageInitERKN11ImageLoader11LinkContextE
   fun:_ZN16ImageLoaderMachO16doInitializationERKN11ImageLoader11LinkContextE
   fun:_ZN11ImageLoader23recursiveInitializationERKNS_11LinkContextEjPKcRNS_21InitializerTimingListERNS_15UninitedUpwardsE
   fun:_ZN11ImageLoader23recursiveInitializationERKNS_11LinkContextEjPKcRNS_21InitializerTimingListERNS_15UninitedUpwardsE
}
{
   <insert_a_suppression_name_here>
   Memcheck:Leak
   match-leak-kinds: reachable
   fun:calloc
   fun:_ZN4objc8DenseMapIP10objc_classS2_NS_17DenseMapValueInfoIS2_EENS_12DenseMapInfoIS2_EENS_6detail12DenseMapPairIS2_S2_EEE4growEj
   fun:_ZL16addRemappedClassP10objc_classS0_
   fun:objc_initializeClassPair
   fun:objc_registerClassPair
   fun:__CFStringCreateImmutableFunnel3
   fun:__CFInitialize
   fun:_ZN16ImageLoaderMachO11doImageInitERKN11ImageLoader11LinkContextE
   fun:_ZN16ImageLoaderMachO16doInitializationERKN11ImageLoader11LinkContextE
   fun:_ZN11ImageLoader23recursiveInitializationERKNS_11LinkContextEjPKcRNS_21InitializerTimingListERNS_15UninitedUpwardsE
   fun:_ZN11ImageLoader23recursiveInitializationERKNS_11LinkContextEjPKcRNS_21InitializerTimingListERNS_15UninitedUpwardsE
   fun:_ZN11ImageLoader23recursiveInitializationERKNS_11LinkContextEjPKcRNS_21InitializerTimingListERNS_15UninitedUpwardsE
}
{
   <insert_a_suppression_name_here>
   Memcheck:Leak
   match-leak-kinds: reachable
   fun:calloc
   fun:_ZN4objc8DenseMapIP10objc_classS2_NS_17DenseMapValueInfoIS2_EENS_12DenseMapInfoIS2_EENS_6detail12DenseMapPairIS2_S2_EEE4growEj
   fun:_ZN10objc_class11mangledNameEv
   fun:_ZL16addRemappedClassP10objc_classS0_
   fun:objc_initializeClassPair
   fun:objc_registerClassPair
   fun:__CFStringCreateImmutableFunnel3
   fun:__CFInitialize
   fun:_ZN16ImageLoaderMachO11doImageInitERKN11ImageLoader11LinkContextE
   fun:_ZN16ImageLoaderMachO16doInitializationERKN11ImageLoader11LinkContextE
   fun:_ZN11ImageLoader23recursiveInitializationERKNS_11LinkContextEjPKcRNS_21InitializerTimingListERNS_15UninitedUpwardsE
   fun:_ZN11ImageLoader23recursiveInitializationERKNS_11LinkContextEjPKcRNS_21InitializerTimingListERNS_15UninitedUpwardsE
}
{
   <insert_a_suppression_name_here>
   Memcheck:Leak
   match-leak-kinds: reachable
   fun:calloc
   fun:_ZN4objc8DenseMapIP10objc_classS2_NS_17DenseMapValueInfoIS2_EENS_12DenseMapInfoIS2_EENS_6detail12DenseMapPairIS2_S2_EEE4growEj
   fun:_ZL16addRemappedClassP10objc_classS0_
   fun:objc_initializeClassPair
   fun:objc_registerClassPair
   fun:__CFStringCreateImmutableFunnel3
   fun:__CFInitialize
   fun:_ZN16ImageLoaderMachO11doImageInitERKN11ImageLoader11LinkContextE
   fun:_ZN16ImageLoaderMachO16doInitializationERKN11ImageLoader11LinkContextE
   fun:_ZN11ImageLoader23recursiveInitializationERKNS_11LinkContextEjPKcRNS_21InitializerTimingListERNS_15UninitedUpwardsE
   fun:_ZN11ImageLoader23recursiveInitializationERKNS_11LinkContextEjPKcRNS_21InitializerTimingListERNS_15UninitedUpwardsE
   fun:_ZN11ImageLoader23recursiveInitializationERKNS_11LinkContextEjPKcRNS_21InitializerTimingListERNS_15UninitedUpwardsE
}
{
   <insert_a_suppression_name_here>
   Memcheck:Leak
   match-leak-kinds: reachable
   fun:calloc
   fun:_ZN4objc8DenseMapIP10objc_classS2_NS_17DenseMapValueInfoIS2_EENS_12DenseMapInfoIS2_EENS_6detail12DenseMapPairIS2_S2_EEE4growEj
   fun:_ZL16addRemappedClassP10objc_classS0_
   fun:objc_initializeClassPair
   fun:objc_registerClassPair
   fun:__CFStringCreateImmutableFunnel3
   fun:__CFInitialize
   fun:_ZN16ImageLoaderMachO11doImageInitERKN11ImageLoader11LinkContextE
   fun:_ZN16ImageLoaderMachO16doInitializationERKN11ImageLoader11LinkContextE
   fun:_ZN11ImageLoader23recursiveInitializationERKNS_11LinkContextEjPKcRNS_21InitializerTimingListERNS_15UninitedUpwardsE
   fun:_ZN11ImageLoader23recursiveInitializationERKNS_11LinkContextEjPKcRNS_21InitializerTimingListERNS_15UninitedUpwardsE
   fun:_ZN11ImageLoader23recursiveInitializationERKNS_11LinkContextEjPKcRNS_21InitializerTimingListERNS_15UninitedUpwardsE
}
{
   <insert_a_suppression_name_here>
   Memcheck:Leak
   match-leak-kinds: reachable
   fun:calloc
   fun:_ZN4objc8DenseMapIP10objc_classS2_NS_17DenseMapValueInfoIS2_EENS_12DenseMapInfoIS2_EENS_6detail12DenseMapPairIS2_S2_EEE4growEj
   fun:_ZN10objc_class11mangledNameEv
   fun:_ZL16addRemappedClassP10objc_classS0_
   fun:objc_initializeClassPair
   fun:objc_registerClassPair
   fun:__CFStringCreateImmutableFunnel3
   fun:__CFInitialize
   fun:_ZN16ImageLoaderMachO11doImageInitERKN11ImageLoader11LinkContextE
   fun:_ZN16ImageLoaderMachO16doInitializationERKN11ImageLoader11LinkContextE
   fun:_ZN11ImageLoader23recursiveInitializationERKNS_11LinkContextEjPKcRNS_21InitializerTimingListERNS_15UninitedUpwardsE
   fun:_ZN11ImageLoader23recursiveInitializationERKNS_11LinkContextEjPKcRNS_21InitializerTimingListERNS_15UninitedUpwardsE
}
{
   <insert_a_suppression_name_here>
   Memcheck:Leak
   match-leak-kinds: reachable
   fun:calloc
   fun:_ZN4objc8DenseMapIP10objc_classS2_NS_17DenseMapValueInfoIS2_EENS_12DenseMapInfoIS2_EENS_6detail12DenseMapPairIS2_S2_EEE4growEj
   fun:_ZL16addRemappedClassP10objc_classS0_
   fun:objc_initializeClassPair
   fun:objc_registerClassPair
   fun:__CFStringCreateImmutableFunnel3
   fun:__CFInitialize
   fun:_ZN16ImageLoaderMachO11doImageInitERKN11ImageLoader11LinkContextE
   fun:_ZN16ImageLoaderMachO16doInitializationERKN11ImageLoader11LinkContextE
   fun:_ZN11ImageLoader23recursiveInitializationERKNS_11LinkContextEjPKcRNS_21InitializerTimingListERNS_15UninitedUpwardsE
   fun:_ZN11ImageLoader23recursiveInitializationERKNS_11LinkContextEjPKcRNS_21InitializerTimingListERNS_15UninitedUpwardsE
   fun:_ZN11ImageLoader23recursiveInitializationERKNS_11LinkContextEjPKcRNS_21InitializerTimingListERNS_15UninitedUpwardsE
}
{
   <insert_a_suppression_name_here>
   Memcheck:Leak
   match-leak-kinds: reachable
   fun:calloc
   fun:_ZN4objc8DenseMapIP10objc_classS2_NS_17DenseMapValueInfoIS2_EENS_12DenseMapInfoIS2_EENS_6detail12DenseMapPairIS2_S2_EEE4growEj
   fun:_ZN10objc_class11mangledNameEv
   fun:_ZL16addRemappedClassP10objc_classS0_
   fun:objc_initializeClassPair
   fun:objc_registerClassPair
   fun:__CFStringCreateImmutableFunnel3
   fun:__CFInitialize
   fun:_ZN16ImageLoaderMachO11doImageInitERKN11ImageLoader11LinkContextE
   fun:_ZN16ImageLoaderMachO16doInitializationERKN11ImageLoader11LinkContextE
   fun:_ZN11ImageLoader23recursiveInitializationERKNS_11LinkContextEjPKcRNS_21InitializerTimingListERNS_15UninitedUpwardsE
   fun:_ZN11ImageLoader23recursiveInitializationERKNS_11LinkContextEjPKcRNS_21InitializerTimingListERNS_15UninitedUpwardsE
}
{
   <insert_a_suppression_name_here>
   Memcheck:Leak
   match-leak-kinds: reachable
   fun:calloc
   fun:_ZN4objc8DenseMapIP10objc_classS2_NS_17DenseMapValueInfoIS2_EENS_12DenseMapInfoIS2_EENS_6detail12DenseMapPairIS2_S2_EEE4growEj
   fun:_ZN10objc_class11mangledNameEv
   fun:_ZN10objc_class11mangledNameEv
   fun:_ZL16addRemappedClassP10objc_classS0_
   fun:objc_initializeClassPair
   fun:objc_registerClassPair
   fun:__CFStringCreateImmutableFunnel3
   fun:__CFInitialize
   fun:_ZN16ImageLoaderMachO11doImageInitERKN11ImageLoader11LinkContextE
   fun:_ZN16ImageLoaderMachO16doInitializationERKN11ImageLoader11LinkContextE
   fun:_ZN11ImageLoader23recursiveInitializationERKNS_11LinkContextEjPKcRNS_21InitializerTimingListERNS_15UninitedUpwardsE
}
{
   <insert_a_suppression_name_here>
   Memcheck:Leak
   match-leak-kinds: reachable
   fun:calloc
   fun:_ZN4objc8DenseMapIP10objc_classS2_NS_17DenseMapValueInfoIS2_EENS_12DenseMapInfoIS2_EENS_6detail12DenseMapPairIS2_S2_EEE4growEj
   fun:_ZN10objc_class11mangledNameEv
   fun:_ZN10objc_class11mangledNameEv
   fun:_ZN10objc_class11mangledNameEv
   fun:_ZL16addRemappedClassP10objc_classS0_
   fun:objc_initializeClassPair
   fun:objc_registerClassPair
   fun:__CFStringCreateImmutableFunnel3
   fun:__CFInitialize
   fun:_ZN16ImageLoaderMachO11doImageInitERKN11ImageLoader11LinkContextE
   fun:_ZN16ImageLoaderMachO16doInitializationERKN11ImageLoader11LinkContextE
}
{
   <insert_a_suppression_name_here>
   Memcheck:Leak
   match-leak-kinds: reachable
   fun:calloc
   fun:_ZN4objc8DenseMapIP10objc_classS2_NS_17DenseMapValueInfoIS2_EENS_12DenseMapInfoIS2_EENS_6detail12DenseMapPairIS2_S2_EEE4growEj
   fun:_ZN10objc_class11mangledNameEv
   fun:_ZN10objc_class11mangledNameEv
   fun:_ZL16addRemappedClassP10objc_classS0_
   fun:objc_initializeClassPair
   fun:objc_registerClassPair
   fun:__CFStringCreateImmutableFunnel3
   fun:__CFInitialize
   fun:_ZN16ImageLoaderMachO11doImageInitERKN11ImageLoader11LinkContextE
   fun:_ZN16ImageLoaderMachO16doInitializationERKN11ImageLoader11LinkContextE
   fun:_ZN11ImageLoader23recursiveInitializationERKNS_11LinkContextEjPKcRNS_21InitializerTimingListERNS_15UninitedUpwardsE
}
{
   <insert_a_suppression_name_here>
   Memcheck:Leak
   match-leak-kinds: reachable
   fun:calloc
   fun:_ZN4objc8DenseMapIP10objc_classS2_NS_17DenseMapValueInfoIS2_EENS_12DenseMapInfoIS2_EENS_6detail12DenseMapPairIS2_S2_EEE4growEj
   fun:_ZN10objc_class11mangledNameEv
   fun:_ZL16addRemappedClassP10objc_classS0_
   fun:objc_initializeClassPair
   fun:objc_registerClassPair
   fun:__CFStringCreateImmutableFunnel3
   fun:__CFInitialize
   fun:_ZN16ImageLoaderMachO11doImageInitERKN11ImageLoader11LinkContextE
   fun:_ZN16ImageLoaderMachO16doInitializationERKN11ImageLoader11LinkContextE
   fun:_ZN11ImageLoader23recursiveInitializationERKNS_11LinkContextEjPKcRNS_21InitializerTimingListERNS_15UninitedUpwardsE
   fun:_ZN11ImageLoader23recursiveInitializationERKNS_11LinkContextEjPKcRNS_21InitializerTimingListERNS_15UninitedUpwardsE
}
{
   <insert_a_suppression_name_here>
   Memcheck:Leak
   match-leak-kinds: reachable
   fun:calloc
   fun:_ZN4objc8DenseMapIP10objc_classS2_NS_17DenseMapValueInfoIS2_EENS_12DenseMapInfoIS2_EENS_6detail12DenseMapPairIS2_S2_EEE4growEj
   fun:_ZL16addRemappedClassP10objc_classS0_
   fun:objc_initializeClassPair
   fun:objc_registerClassPair
   fun:__CFStringCreateImmutableFunnel3
   fun:__CFInitialize
   fun:_ZN16ImageLoaderMachO11doImageInitERKN11ImageLoader11LinkContextE
   fun:_ZN16ImageLoaderMachO16doInitializationERKN11ImageLoader11LinkContextE
   fun:_ZN11ImageLoader23recursiveInitializationERKNS_11LinkContextEjPKcRNS_21InitializerTimingListERNS_15UninitedUpwardsE
   fun:_ZN11ImageLoader23recursiveInitializationERKNS_11LinkContextEjPKcRNS_21InitializerTimingListERNS_15UninitedUpwardsE
   fun:_ZN11ImageLoader23recursiveInitializationERKNS_11LinkContextEjPKcRNS_21InitializerTimingListERNS_15UninitedUpwardsE
}
{
   <insert_a_suppression_name_here>
   Memcheck:Leak
   match-leak-kinds: reachable
   fun:calloc
   fun:_ZN4objc8DenseMapIP10objc_classS2_NS_17DenseMapValueInfoIS2_EENS_12DenseMapInfoIS2_EENS_6detail12DenseMapPairIS2_S2_EEE4growEj
   fun:_ZL16addRemappedClassP10objc_classS0_
   fun:objc_initializeClassPair
   fun:objc_registerClassPair
   fun:__CFStringCreateImmutableFunnel3
   fun:__CFInitialize
   fun:_ZN16ImageLoaderMachO11doImageInitERKN11ImageLoader11LinkContextE
   fun:_ZN16ImageLoaderMachO16doInitializationERKN11ImageLoader11LinkContextE
   fun:_ZN11ImageLoader23recursiveInitializationERKNS_11LinkContextEjPKcRNS_21InitializerTimingListERNS_15UninitedUpwardsE
   fun:_ZN11ImageLoader23recursiveInitializationERKNS_11LinkContextEjPKcRNS_21InitializerTimingListERNS_15UninitedUpwardsE
   fun:_ZN11ImageLoader23recursiveInitializationERKNS_11LinkContextEjPKcRNS_21InitializerTimingListERNS_15UninitedUpwardsE
}
{
   <insert_a_suppression_name_here>
   Memcheck:Leak
   match-leak-kinds: reachable
   fun:calloc
   fun:_ZN4objc8DenseMapIP10objc_classS2_NS_17DenseMapValueInfoIS2_EENS_12DenseMapInfoIS2_EENS_6detail12DenseMapPairIS2_S2_EEE4growEj
   fun:_ZN10objc_class11mangledNameEv
   fun:_ZL16addRemappedClassP10objc_classS0_
   fun:objc_initializeClassPair
   fun:objc_registerClassPair
   fun:__CFStringCreateImmutableFunnel3
   fun:__CFInitialize
   fun:_ZN16ImageLoaderMachO11doImageInitERKN11ImageLoader11LinkContextE
   fun:_ZN16ImageLoaderMachO16doInitializationERKN11ImageLoader11LinkContextE
   fun:_ZN11ImageLoader23recursiveInitializationERKNS_11LinkContextEjPKcRNS_21InitializerTimingListERNS_15UninitedUpwardsE
   fun:_ZN11ImageLoader23recursiveInitializationERKNS_11LinkContextEjPKcRNS_21InitializerTimingListERNS_15UninitedUpwardsE
}
{
   <insert_a_suppression_name_here>
   Memcheck:Leak
   match-leak-kinds: reachable
   fun:calloc
   fun:_ZN4objc8DenseMapIP10objc_classS2_NS_17DenseMapValueInfoIS2_EENS_12DenseMapInfoIS2_EENS_6detail12DenseMapPairIS2_S2_EEE4growEj
   fun:_ZL16addRemappedClassP10objc_classS0_
   fun:objc_initializeClassPair
   fun:objc_registerClassPair
   fun:__CFStringCreateImmutableFunnel3
   fun:__CFInitialize
   fun:_ZN16ImageLoaderMachO11doImageInitERKN11ImageLoader11LinkContextE
   fun:_ZN16ImageLoaderMachO16doInitializationERKN11ImageLoader11LinkContextE
   fun:_ZN11ImageLoader23recursiveInitializationERKNS_11LinkContextEjPKcRNS_21InitializerTimingListERNS_15UninitedUpwardsE
   fun:_ZN11ImageLoader23recursiveInitializationERKNS_11LinkContextEjPKcRNS_21InitializerTimingListERNS_15UninitedUpwardsE
   fun:_ZN11ImageLoader23recursiveInitializationERKNS_11LinkContextEjPKcRNS_21InitializerTimingListERNS_15UninitedUpwardsE
}
{
   <insert_a_suppression_name_here>
   Memcheck:Leak
   match-leak-kinds: reachable
   fun:calloc
   fun:_ZN4objc8DenseMapIP10objc_classS2_NS_17DenseMapValueInfoIS2_EENS_12DenseMapInfoIS2_EENS_6detail12DenseMapPairIS2_S2_EEE4growEj
   fun:_ZN10objc_class11mangledNameEv
   fun:_ZL16addRemappedClassP10objc_classS0_
   fun:objc_initializeClassPair
   fun:objc_registerClassPair
   fun:__CFStringCreateImmutableFunnel3
   fun:__CFInitialize
   fun:_ZN16ImageLoaderMachO11doImageInitERKN11ImageLoader11LinkContextE
   fun:_ZN16ImageLoaderMachO16doInitializationERKN11ImageLoader11LinkContextE
   fun:_ZN11ImageLoader23recursiveInitializationERKNS_11LinkContextEjPKcRNS_21InitializerTimingListERNS_15UninitedUpwardsE
   fun:_ZN11ImageLoader23recursiveInitializationERKNS_11LinkContextEjPKcRNS_21InitializerTimingListERNS_15UninitedUpwardsE
}
{
   <insert_a_suppression_name_here>
   Memcheck:Leak
   match-leak-kinds: reachable
   fun:calloc
   fun:_ZN4objc8DenseMapIP10objc_classS2_NS_17DenseMapValueInfoIS2_EENS_12DenseMapInfoIS2_EENS_6detail12DenseMapPairIS2_S2_EEE4growEj
   fun:_ZN10objc_class11mangledNameEv
   fun:_ZN10objc_class11mangledNameEv
   fun:_ZL16addRemappedClassP10objc_classS0_
   fun:objc_initializeClassPair
   fun:objc_registerClassPair
   fun:__CFStringCreateImmutableFunnel3
   fun:__CFInitialize
   fun:_ZN16ImageLoaderMachO11doImageInitERKN11ImageLoader11LinkContextE
   fun:_ZN16ImageLoaderMachO16doInitializationERKN11ImageLoader11LinkContextE
   fun:_ZN11ImageLoader23recursiveInitializationERKNS_11LinkContextEjPKcRNS_21InitializerTimingListERNS_15UninitedUpwardsE
}
{
   <insert_a_suppression_name_here>
   Memcheck:Leak
   match-leak-kinds: reachable
   fun:calloc
   fun:_ZN4objc8DenseMapIP10objc_classS2_NS_17DenseMapValueInfoIS2_EENS_12DenseMapInfoIS2_EENS_6detail12DenseMapPairIS2_S2_EEE4growEj
   fun:_ZN10objc_class11mangledNameEv
   fun:_ZL16addRemappedClassP10objc_classS0_
   fun:objc_initializeClassPair
   fun:objc_registerClassPair
   fun:__CFStringCreateImmutableFunnel3
   fun:__CFInitialize
   fun:_ZN16ImageLoaderMachO11doImageInitERKN11ImageLoader11LinkContextE
   fun:_ZN16ImageLoaderMachO16doInitializationERKN11ImageLoader11LinkContextE
   fun:_ZN11ImageLoader23recursiveInitializationERKNS_11LinkContextEjPKcRNS_21InitializerTimingListERNS_15UninitedUpwardsE
   fun:_ZN11ImageLoader23recursiveInitializationERKNS_11LinkContextEjPKcRNS_21InitializerTimingListERNS_15UninitedUpwardsE
}
{
   <insert_a_suppression_name_here>
   Memcheck:Leak
   match-leak-kinds: reachable
   fun:calloc
   fun:_ZN4objc8DenseMapIP10objc_classS2_NS_17DenseMapValueInfoIS2_EENS_12DenseMapInfoIS2_EENS_6detail12DenseMapPairIS2_S2_EEE4growEj
   fun:_ZL16addRemappedClassP10objc_classS0_
   fun:objc_initializeClassPair
   fun:objc_registerClassPair
   fun:__CFStringCreateImmutableFunnel3
   fun:__CFInitialize
   fun:_ZN16ImageLoaderMachO11doImageInitERKN11ImageLoader11LinkContextE
   fun:_ZN16ImageLoaderMachO16doInitializationERKN11ImageLoader11LinkContextE
   fun:_ZN11ImageLoader23recursiveInitializationERKNS_11LinkContextEjPKcRNS_21InitializerTimingListERNS_15UninitedUpwardsE
   fun:_ZN11ImageLoader23recursiveInitializationERKNS_11LinkContextEjPKcRNS_21InitializerTimingListERNS_15UninitedUpwardsE
   fun:_ZN11ImageLoader23recursiveInitializationERKNS_11LinkContextEjPKcRNS_21InitializerTimingListERNS_15UninitedUpwardsE
}
{
   <insert_a_suppression_name_here>
   Memcheck:Leak
   match-leak-kinds: reachable
   fun:calloc
   fun:_ZN4objc8DenseMapIP10objc_classS2_NS_17DenseMapValueInfoIS2_EENS_12DenseMapInfoIS2_EENS_6detail12DenseMapPairIS2_S2_EEE4growEj
   fun:_ZL16addRemappedClassP10objc_classS0_
   fun:objc_initializeClassPair
   fun:objc_registerClassPair
   fun:__CFStringCreateImmutableFunnel3
   fun:__CFInitializeLinkCheck
   fun:_ZN16ImageLoaderMachO11doImageInitERKN11ImageLoader11LinkContextE
   fun:_ZN16ImageLoaderMachO16doInitializationERKN11ImageLoader11LinkContextE
   fun:_ZN11ImageLoader23recursiveInitializationERKNS_11LinkContextEjPKcRNS_21InitializerTimingListERNS_15UninitedUpwardsE
   fun:_ZN11ImageLoader23recursiveInitializationERKNS_11LinkContextEjPKcRNS_21InitializerTimingListERNS_15UninitedUpwardsE
   fun:_ZN11ImageLoader23recursiveInitializationERKNS_11LinkContextEjPKcRNS_21InitializerTimingListERNS_15UninitedUpwardsE
}
{
   <insert_a_suppression_name_here>
   Memcheck:Leak
   match-leak-kinds: reachable
   fun:calloc
   fun:_ZN4objc8DenseMapIP10objc_classS2_NS_17DenseMapValueInfoIS2_EENS_12DenseMapInfoIS2_EENS_6detail12DenseMapPairIS2_S2_EEE4growEj
   fun:_ZN10objc_class11mangledNameEv
   fun:_ZL16addRemappedClassP10objc_classS0_
   fun:objc_initializeClassPair
   fun:objc_registerClassPair
   fun:__CFStringCreateImmutableFunnel3
   fun:__CFInitializeLinkCheck
   fun:_ZN16ImageLoaderMachO11doImageInitERKN11ImageLoader11LinkContextE
   fun:_ZN16ImageLoaderMachO16doInitializationERKN11ImageLoader11LinkContextE
   fun:_ZN11ImageLoader23recursiveInitializationERKNS_11LinkContextEjPKcRNS_21InitializerTimingListERNS_15UninitedUpwardsE
   fun:_ZN11ImageLoader23recursiveInitializationERKNS_11LinkContextEjPKcRNS_21InitializerTimingListERNS_15UninitedUpwardsE
}
{
   <insert_a_suppression_name_here>
   Memcheck:Leak
   match-leak-kinds: reachable
   fun:calloc
   fun:_ZN4objc8DenseMapIP10objc_classS2_NS_17DenseMapValueInfoIS2_EENS_12DenseMapInfoIS2_EENS_6detail12DenseMapPairIS2_S2_EEE4growEj
   fun:_ZN10objc_class11mangledNameEv
   fun:_ZN10objc_class11mangledNameEv
   fun:_ZL16addRemappedClassP10objc_classS0_
   fun:objc_initializeClassPair
   fun:objc_registerClassPair
   fun:__CFStringCreateImmutableFunnel3
   fun:__CFInitializeLinkCheck
   fun:_ZN16ImageLoaderMachO11doImageInitERKN11ImageLoader11LinkContextE
   fun:_ZN16ImageLoaderMachO16doInitializationERKN11ImageLoader11LinkContextE
   fun:_ZN11ImageLoader23recursiveInitializationERKNS_11LinkContextEjPKcRNS_21InitializerTimingListERNS_15UninitedUpwardsE
}
{
   <insert_a_suppression_name_here>
   Memcheck:Leak
   match-leak-kinds: reachable
   fun:calloc
   fun:_ZN4objc8DenseMapIP10objc_classS2_NS_17DenseMapValueInfoIS2_EENS_12DenseMapInfoIS2_EENS_6detail12DenseMapPairIS2_S2_EEE4growEj
   fun:_ZN10objc_class11mangledNameEv
   fun:_ZL16addRemappedClassP10objc_classS0_
   fun:objc_initializeClassPair
   fun:objc_registerClassPair
   fun:__CFStringCreateImmutableFunnel3
   fun:__CFInitializeLinkCheck
   fun:_ZN16ImageLoaderMachO11doImageInitERKN11ImageLoader11LinkContextE
   fun:_ZN16ImageLoaderMachO16doInitializationERKN11ImageLoader11LinkContextE
   fun:_ZN11ImageLoader23recursiveInitializationERKNS_11LinkContextEjPKcRNS_21InitializerTimingListERNS_15UninitedUpwardsE
   fun:_ZN11ImageLoader23recursiveInitializationERKNS_11LinkContextEjPKcRNS_21InitializerTimingListERNS_15UninitedUpwardsE
}
{
   <insert_a_suppression_name_here>
   Memcheck:Leak
   match-leak-kinds: reachable
   fun:calloc
   fun:_ZN4objc8DenseMapIP10objc_classS2_NS_17DenseMapValueInfoIS2_EENS_12DenseMapInfoIS2_EENS_6detail12DenseMapPairIS2_S2_EEE4growEj
   fun:_ZL16addRemappedClassP10objc_classS0_
   fun:objc_initializeClassPair
   fun:objc_registerClassPair
   fun:__CFStringCreateImmutableFunnel3
   fun:__CFInitializeLinkCheck
   fun:_ZN16ImageLoaderMachO11doImageInitERKN11ImageLoader11LinkContextE
   fun:_ZN16ImageLoaderMachO16doInitializationERKN11ImageLoader11LinkContextE
   fun:_ZN11ImageLoader23recursiveInitializationERKNS_11LinkContextEjPKcRNS_21InitializerTimingListERNS_15UninitedUpwardsE
   fun:_ZN11ImageLoader23recursiveInitializationERKNS_11LinkContextEjPKcRNS_21InitializerTimingListERNS_15UninitedUpwardsE
   fun:_ZN11ImageLoader23recursiveInitializationERKNS_11LinkContextEjPKcRNS_21InitializerTimingListERNS_15UninitedUpwardsE
}
{
   <insert_a_suppression_name_here>
   Memcheck:Leak
   match-leak-kinds: reachable
   fun:calloc
   fun:_ZN4objc8DenseMapIP10objc_classS2_NS_17DenseMapValueInfoIS2_EENS_12DenseMapInfoIS2_EENS_6detail12DenseMapPairIS2_S2_EEE4growEj
   fun:_ZN10objc_class11mangledNameEv
   fun:_ZL16addRemappedClassP10objc_classS0_
   fun:objc_initializeClassPair
   fun:objc_registerClassPair
   fun:__CFStringCreateImmutableFunnel3
   fun:__CFInitializeLinkCheck
   fun:_ZN16ImageLoaderMachO11doImageInitERKN11ImageLoader11LinkContextE
   fun:_ZN16ImageLoaderMachO16doInitializationERKN11ImageLoader11LinkContextE
   fun:_ZN11ImageLoader23recursiveInitializationERKNS_11LinkContextEjPKcRNS_21InitializerTimingListERNS_15UninitedUpwardsE
   fun:_ZN11ImageLoader23recursiveInitializationERKNS_11LinkContextEjPKcRNS_21InitializerTimingListERNS_15UninitedUpwardsE
}
{
   <insert_a_suppression_name_here>
   Memcheck:Leak
   match-leak-kinds: reachable
   fun:calloc
   fun:_ZN4objc8DenseMapIP10objc_classS2_NS_17DenseMapValueInfoIS2_EENS_12DenseMapInfoIS2_EENS_6detail12DenseMapPairIS2_S2_EEE4growEj
   fun:_ZL16addRemappedClassP10objc_classS0_
   fun:objc_initializeClassPair
   fun:objc_registerClassPair
   fun:__CFStringCreateImmutableFunnel3
   fun:__CFInitializeLinkCheck
   fun:_ZN16ImageLoaderMachO11doImageInitERKN11ImageLoader11LinkContextE
   fun:_ZN16ImageLoaderMachO16doInitializationERKN11ImageLoader11LinkContextE
   fun:_ZN11ImageLoader23recursiveInitializationERKNS_11LinkContextEjPKcRNS_21InitializerTimingListERNS_15UninitedUpwardsE
   fun:_ZN11ImageLoader23recursiveInitializationERKNS_11LinkContextEjPKcRNS_21InitializerTimingListERNS_15UninitedUpwardsE
   fun:_ZN11ImageLoader23recursiveInitializationERKNS_11LinkContextEjPKcRNS_21InitializerTimingListERNS_15UninitedUpwardsE
}
{
   <insert_a_suppression_name_here>
   Memcheck:Leak
   match-leak-kinds: reachable
   fun:calloc
   fun:_ZN4objc8DenseMapIP10objc_classS2_NS_17DenseMapValueInfoIS2_EENS_12DenseMapInfoIS2_EENS_6detail12DenseMapPairIS2_S2_EEE4growEj
   fun:_ZN10objc_class11mangledNameEv
   fun:_ZL16addRemappedClassP10objc_classS0_
   fun:objc_initializeClassPair
   fun:objc_registerClassPair
   fun:__CFStringCreateImmutableFunnel3
   fun:__CFInitializeLinkCheck
   fun:_ZN16ImageLoaderMachO11doImageInitERKN11ImageLoader11LinkContextE
   fun:_ZN16ImageLoaderMachO16doInitializationERKN11ImageLoader11LinkContextE
   fun:_ZN11ImageLoader23recursiveInitializationERKNS_11LinkContextEjPKcRNS_21InitializerTimingListERNS_15UninitedUpwardsE
   fun:_ZN11ImageLoader23recursiveInitializationERKNS_11LinkContextEjPKcRNS_21InitializerTimingListERNS_15UninitedUpwardsE
}
{
   <insert_a_suppression_name_here>
   Memcheck:Leak
   match-leak-kinds: reachable
   fun:calloc
   fun:_ZN4objc8DenseMapIP10objc_classS2_NS_17DenseMapValueInfoIS2_EENS_12DenseMapInfoIS2_EENS_6detail12DenseMapPairIS2_S2_EEE4growEj
   fun:_ZN10objc_class11mangledNameEv
   fun:_ZN10objc_class11mangledNameEv
   fun:_ZL16addRemappedClassP10objc_classS0_
   fun:objc_initializeClassPair
   fun:objc_registerClassPair
   fun:__CFStringCreateImmutableFunnel3
   fun:__CFInitializeLinkCheck
   fun:_ZN16ImageLoaderMachO11doImageInitERKN11ImageLoader11LinkContextE
   fun:_ZN16ImageLoaderMachO16doInitializationERKN11ImageLoader11LinkContextE
   fun:_ZN11ImageLoader23recursiveInitializationERKNS_11LinkContextEjPKcRNS_21InitializerTimingListERNS_15UninitedUpwardsE
}
{
   <insert_a_suppression_name_here>
   Memcheck:Leak
   match-leak-kinds: reachable
   fun:calloc
   fun:_ZN4objc8DenseMapIP10objc_classS2_NS_17DenseMapValueInfoIS2_EENS_12DenseMapInfoIS2_EENS_6detail12DenseMapPairIS2_S2_EEE4growEj
   fun:_ZN10objc_class11mangledNameEv
   fun:_ZL16addRemappedClassP10objc_classS0_
   fun:objc_initializeClassPair
   fun:objc_registerClassPair
   fun:__CFStringCreateImmutableFunnel3
   fun:__CFInitializeLinkCheck
   fun:_ZN16ImageLoaderMachO11doImageInitERKN11ImageLoader11LinkContextE
   fun:_ZN16ImageLoaderMachO16doInitializationERKN11ImageLoader11LinkContextE
   fun:_ZN11ImageLoader23recursiveInitializationERKNS_11LinkContextEjPKcRNS_21InitializerTimingListERNS_15UninitedUpwardsE
   fun:_ZN11ImageLoader23recursiveInitializationERKNS_11LinkContextEjPKcRNS_21InitializerTimingListERNS_15UninitedUpwardsE
}
{
   <insert_a_suppression_name_here>
   Memcheck:Leak
   match-leak-kinds: reachable
   fun:calloc
   fun:_ZN4objc8DenseMapIP10objc_classS2_NS_17DenseMapValueInfoIS2_EENS_12DenseMapInfoIS2_EENS_6detail12DenseMapPairIS2_S2_EEE4growEj
   fun:_ZL16addRemappedClassP10objc_classS0_
   fun:objc_initializeClassPair
   fun:objc_registerClassPair
   fun:__CFStringCreateImmutableFunnel3
   fun:__CFInitializeLinkCheck
   fun:_ZN16ImageLoaderMachO11doImageInitERKN11ImageLoader11LinkContextE
   fun:_ZN16ImageLoaderMachO16doInitializationERKN11ImageLoader11LinkContextE
   fun:_ZN11ImageLoader23recursiveInitializationERKNS_11LinkContextEjPKcRNS_21InitializerTimingListERNS_15UninitedUpwardsE
   fun:_ZN11ImageLoader23recursiveInitializationERKNS_11LinkContextEjPKcRNS_21InitializerTimingListERNS_15UninitedUpwardsE
   fun:_ZN11ImageLoader23recursiveInitializationERKNS_11LinkContextEjPKcRNS_21InitializerTimingListERNS_15UninitedUpwardsE
}
{
   <insert_a_suppression_name_here>
   Memcheck:Leak
   match-leak-kinds: reachable
   fun:calloc
   fun:_ZN4objc8DenseMapIP10objc_classS2_NS_17DenseMapValueInfoIS2_EENS_12DenseMapInfoIS2_EENS_6detail12DenseMapPairIS2_S2_EEE4growEj
   fun:_ZN10objc_class11mangledNameEv
   fun:_ZL16addRemappedClassP10objc_classS0_
   fun:objc_initializeClassPair
   fun:objc_registerClassPair
   fun:__CFStringCreateImmutableFunnel3
   fun:__CFInitializeLinkCheck
   fun:_ZN16ImageLoaderMachO11doImageInitERKN11ImageLoader11LinkContextE
   fun:_ZN16ImageLoaderMachO16doInitializationERKN11ImageLoader11LinkContextE
   fun:_ZN11ImageLoader23recursiveInitializationERKNS_11LinkContextEjPKcRNS_21InitializerTimingListERNS_15UninitedUpwardsE
   fun:_ZN11ImageLoader23recursiveInitializationERKNS_11LinkContextEjPKcRNS_21InitializerTimingListERNS_15UninitedUpwardsE
}
{
   <insert_a_suppression_name_here>
   Memcheck:Leak
   match-leak-kinds: reachable
   fun:calloc
   fun:_ZN4objc8DenseMapIP10objc_classS2_NS_17DenseMapValueInfoIS2_EENS_12DenseMapInfoIS2_EENS_6detail12DenseMapPairIS2_S2_EEE4growEj
   fun:_ZN10objc_class11mangledNameEv
   fun:_ZN10objc_class11mangledNameEv
   fun:_ZL16addRemappedClassP10objc_classS0_
   fun:objc_initializeClassPair
   fun:objc_registerClassPair
   fun:__CFStringCreateImmutableFunnel3
   fun:__CFInitializeLinkCheck
   fun:_ZN16ImageLoaderMachO11doImageInitERKN11ImageLoader11LinkContextE
   fun:_ZN16ImageLoaderMachO16doInitializationERKN11ImageLoader11LinkContextE
   fun:_ZN11ImageLoader23recursiveInitializationERKNS_11LinkContextEjPKcRNS_21InitializerTimingListERNS_15UninitedUpwardsE
}
{
   <insert_a_suppression_name_here>
   Memcheck:Leak
   match-leak-kinds: reachable
   fun:calloc
   fun:_ZN4objc8DenseMapIP10objc_classS2_NS_17DenseMapValueInfoIS2_EENS_12DenseMapInfoIS2_EENS_6detail12DenseMapPairIS2_S2_EEE4growEj
   fun:_ZN10objc_class11mangledNameEv
   fun:_ZL16addRemappedClassP10objc_classS0_
   fun:objc_initializeClassPair
   fun:objc_registerClassPair
   fun:__CFStringCreateImmutableFunnel3
   fun:__CFInitializeLinkCheck
   fun:_ZN16ImageLoaderMachO11doImageInitERKN11ImageLoader11LinkContextE
   fun:_ZN16ImageLoaderMachO16doInitializationERKN11ImageLoader11LinkContextE
   fun:_ZN11ImageLoader23recursiveInitializationERKNS_11LinkContextEjPKcRNS_21InitializerTimingListERNS_15UninitedUpwardsE
   fun:_ZN11ImageLoader23recursiveInitializationERKNS_11LinkContextEjPKcRNS_21InitializerTimingListERNS_15UninitedUpwardsE
}
{
   <insert_a_suppression_name_here>
   Memcheck:Leak
   match-leak-kinds: reachable
   fun:calloc
   fun:_ZN4objc8DenseMapIP10objc_classS2_NS_17DenseMapValueInfoIS2_EENS_12DenseMapInfoIS2_EENS_6detail12DenseMapPairIS2_S2_EEE4growEj
   fun:_ZL16addRemappedClassP10objc_classS0_
   fun:objc_initializeClassPair
   fun:objc_registerClassPair
   fun:__CFStringCreateImmutableFunnel3
   fun:__CFInitializeLinkCheck
   fun:_ZN16ImageLoaderMachO11doImageInitERKN11ImageLoader11LinkContextE
   fun:_ZN16ImageLoaderMachO16doInitializationERKN11ImageLoader11LinkContextE
   fun:_ZN11ImageLoader23recursiveInitializationERKNS_11LinkContextEjPKcRNS_21InitializerTimingListERNS_15UninitedUpwardsE
   fun:_ZN11ImageLoader23recursiveInitializationERKNS_11LinkContextEjPKcRNS_21InitializerTimingListERNS_15UninitedUpwardsE
   fun:_ZN11ImageLoader23recursiveInitializationERKNS_11LinkContextEjPKcRNS_21InitializerTimingListERNS_15UninitedUpwardsE
}
{
   <insert_a_suppression_name_here>
   Memcheck:Leak
   match-leak-kinds: reachable
   fun:calloc
   fun:_ZN4objc8DenseMapIP10objc_classS2_NS_17DenseMapValueInfoIS2_EENS_12DenseMapInfoIS2_EENS_6detail12DenseMapPairIS2_S2_EEE4growEj
   fun:_ZN10objc_class11mangledNameEv
   fun:_ZL16addRemappedClassP10objc_classS0_
   fun:objc_initializeClassPair
   fun:objc_registerClassPair
   fun:__CFStringCreateImmutableFunnel3
   fun:__CFInitializeLinkCheck
   fun:_ZN16ImageLoaderMachO11doImageInitERKN11ImageLoader11LinkContextE
   fun:_ZN16ImageLoaderMachO16doInitializationERKN11ImageLoader11LinkContextE
   fun:_ZN11ImageLoader23recursiveInitializationERKNS_11LinkContextEjPKcRNS_21InitializerTimingListERNS_15UninitedUpwardsE
   fun:_ZN11ImageLoader23recursiveInitializationERKNS_11LinkContextEjPKcRNS_21InitializerTimingListERNS_15UninitedUpwardsE
}
{
   <insert_a_suppression_name_here>
   Memcheck:Leak
   match-leak-kinds: reachable
   fun:calloc
   fun:_ZN4objc8DenseMapIP10objc_classS2_NS_17DenseMapValueInfoIS2_EENS_12DenseMapInfoIS2_EENS_6detail12DenseMapPairIS2_S2_EEE4growEj
   fun:_ZL16addRemappedClassP10objc_classS0_
   fun:objc_initializeClassPair
   fun:objc_registerClassPair
   fun:__CFStringCreateImmutableFunnel3
   fun:__CFInitializeLinkCheck
   fun:_ZN16ImageLoaderMachO11doImageInitERKN11ImageLoader11LinkContextE
   fun:_ZN16ImageLoaderMachO16doInitializationERKN11ImageLoader11LinkContextE
   fun:_ZN11ImageLoader23recursiveInitializationERKNS_11LinkContextEjPKcRNS_21InitializerTimingListERNS_15UninitedUpwardsE
   fun:_ZN11ImageLoader23recursiveInitializationERKNS_11LinkContextEjPKcRNS_21InitializerTimingListERNS_15UninitedUpwardsE
   fun:_ZN11ImageLoader23recursiveInitializationERKNS_11LinkContextEjPKcRNS_21InitializerTimingListERNS_15UninitedUpwardsE
}
{
   <insert_a_suppression_name_here>
   Memcheck:Leak
   match-leak-kinds: reachable
   fun:calloc
   fun:_ZN4objc8DenseMapIP10objc_classS2_NS_17DenseMapValueInfoIS2_EENS_12DenseMapInfoIS2_EENS_6detail12DenseMapPairIS2_S2_EEE4growEj
   fun:_ZN10objc_class11mangledNameEv
   fun:_ZL16addRemappedClassP10objc_classS0_
   fun:objc_initializeClassPair
   fun:objc_registerClassPair
   fun:__CFStringCreateImmutableFunnel3
   fun:__CFInitializeLinkCheck
   fun:_ZN16ImageLoaderMachO11doImageInitERKN11ImageLoader11LinkContextE
   fun:_ZN16ImageLoaderMachO16doInitializationERKN11ImageLoader11LinkContextE
   fun:_ZN11ImageLoader23recursiveInitializationERKNS_11LinkContextEjPKcRNS_21InitializerTimingListERNS_15UninitedUpwardsE
   fun:_ZN11ImageLoader23recursiveInitializationERKNS_11LinkContextEjPKcRNS_21InitializerTimingListERNS_15UninitedUpwardsE
}
{
   <insert_a_suppression_name_here>
   Memcheck:Leak
   match-leak-kinds: reachable
   fun:calloc
   fun:_ZN4objc8DenseMapIP10objc_classS2_NS_17DenseMapValueInfoIS2_EENS_12DenseMapInfoIS2_EENS_6detail12DenseMapPairIS2_S2_EEE4growEj
   fun:_ZL16addRemappedClassP10objc_classS0_
   fun:objc_initializeClassPair
   fun:objc_registerClassPair
   fun:__CFStringCreateImmutableFunnel3
   fun:__CFInitializeLinkCheck
   fun:_ZN16ImageLoaderMachO11doImageInitERKN11ImageLoader11LinkContextE
   fun:_ZN16ImageLoaderMachO16doInitializationERKN11ImageLoader11LinkContextE
   fun:_ZN11ImageLoader23recursiveInitializationERKNS_11LinkContextEjPKcRNS_21InitializerTimingListERNS_15UninitedUpwardsE
   fun:_ZN11ImageLoader23recursiveInitializationERKNS_11LinkContextEjPKcRNS_21InitializerTimingListERNS_15UninitedUpwardsE
   fun:_ZN11ImageLoader23recursiveInitializationERKNS_11LinkContextEjPKcRNS_21InitializerTimingListERNS_15UninitedUpwardsE
}
{
   <insert_a_suppression_name_here>
   Memcheck:Leak
   match-leak-kinds: reachable
   fun:calloc
   fun:_ZN4objc8DenseMapIP10objc_classS2_NS_17DenseMapValueInfoIS2_EENS_12DenseMapInfoIS2_EENS_6detail12DenseMapPairIS2_S2_EEE4growEj
   fun:_ZN10objc_class11mangledNameEv
   fun:_ZL16addRemappedClassP10objc_classS0_
   fun:objc_initializeClassPair
   fun:objc_registerClassPair
   fun:__CFStringCreateImmutableFunnel3
   fun:__CFInitializeLinkCheck
   fun:_ZN16ImageLoaderMachO11doImageInitERKN11ImageLoader11LinkContextE
   fun:_ZN16ImageLoaderMachO16doInitializationERKN11ImageLoader11LinkContextE
   fun:_ZN11ImageLoader23recursiveInitializationERKNS_11LinkContextEjPKcRNS_21InitializerTimingListERNS_15UninitedUpwardsE
   fun:_ZN11ImageLoader23recursiveInitializationERKNS_11LinkContextEjPKcRNS_21InitializerTimingListERNS_15UninitedUpwardsE
}
{
   <insert_a_suppression_name_here>
   Memcheck:Leak
   match-leak-kinds: reachable
   fun:calloc
   fun:_ZN4objc8DenseMapIP10objc_classS2_NS_17DenseMapValueInfoIS2_EENS_12DenseMapInfoIS2_EENS_6detail12DenseMapPairIS2_S2_EEE4growEj
   fun:_ZN10objc_class11mangledNameEv
   fun:_ZN10objc_class11mangledNameEv
   fun:_ZL16addRemappedClassP10objc_classS0_
   fun:objc_initializeClassPair
   fun:objc_registerClassPair
   fun:__CFStringCreateImmutableFunnel3
   fun:__CFInitializeLinkCheck
   fun:_ZN16ImageLoaderMachO11doImageInitERKN11ImageLoader11LinkContextE
   fun:_ZN16ImageLoaderMachO16doInitializationERKN11ImageLoader11LinkContextE
   fun:_ZN11ImageLoader23recursiveInitializationERKNS_11LinkContextEjPKcRNS_21InitializerTimingListERNS_15UninitedUpwardsE
}
{
   <insert_a_suppression_name_here>
   Memcheck:Leak
   match-leak-kinds: reachable
   fun:calloc
   fun:_ZN4objc8DenseMapIP10objc_classS2_NS_17DenseMapValueInfoIS2_EENS_12DenseMapInfoIS2_EENS_6detail12DenseMapPairIS2_S2_EEE4growEj
   fun:_ZN10objc_class11mangledNameEv
   fun:_ZN10objc_class11mangledNameEv
   fun:_ZN10objc_class11mangledNameEv
   fun:_ZL16addRemappedClassP10objc_classS0_
   fun:objc_initializeClassPair
   fun:objc_registerClassPair
   fun:__CFStringCreateImmutableFunnel3
   fun:__CFInitializeLinkCheck
   fun:_ZN16ImageLoaderMachO11doImageInitERKN11ImageLoader11LinkContextE
   fun:_ZN16ImageLoaderMachO16doInitializationERKN11ImageLoader11LinkContextE
}
{
   <insert_a_suppression_name_here>
   Memcheck:Leak
   match-leak-kinds: reachable
   fun:calloc
   fun:_ZN4objc8DenseMapIP10objc_classS2_NS_17DenseMapValueInfoIS2_EENS_12DenseMapInfoIS2_EENS_6detail12DenseMapPairIS2_S2_EEE4growEj
   fun:_ZN10objc_class11mangledNameEv
   fun:_ZN10objc_class11mangledNameEv
   fun:_ZL16addRemappedClassP10objc_classS0_
   fun:objc_initializeClassPair
   fun:objc_registerClassPair
   fun:__CFStringCreateImmutableFunnel3
   fun:__CFInitializeLinkCheck
   fun:_ZN16ImageLoaderMachO11doImageInitERKN11ImageLoader11LinkContextE
   fun:_ZN16ImageLoaderMachO16doInitializationERKN11ImageLoader11LinkContextE
   fun:_ZN11ImageLoader23recursiveInitializationERKNS_11LinkContextEjPKcRNS_21InitializerTimingListERNS_15UninitedUpwardsE
}
{
   <insert_a_suppression_name_here>
   Memcheck:Leak
   match-leak-kinds: reachable
   fun:calloc
   fun:_ZN4objc8DenseMapIP10objc_classS2_NS_17DenseMapValueInfoIS2_EENS_12DenseMapInfoIS2_EENS_6detail12DenseMapPairIS2_S2_EEE4growEj
   fun:_ZN10objc_class11mangledNameEv
   fun:_ZL16addRemappedClassP10objc_classS0_
   fun:objc_initializeClassPair
   fun:objc_registerClassPair
   fun:__CFStringCreateImmutableFunnel3
   fun:__CFInitializeLinkCheck
   fun:_ZN16ImageLoaderMachO11doImageInitERKN11ImageLoader11LinkContextE
   fun:_ZN16ImageLoaderMachO16doInitializationERKN11ImageLoader11LinkContextE
   fun:_ZN11ImageLoader23recursiveInitializationERKNS_11LinkContextEjPKcRNS_21InitializerTimingListERNS_15UninitedUpwardsE
   fun:_ZN11ImageLoader23recursiveInitializationERKNS_11LinkContextEjPKcRNS_21InitializerTimingListERNS_15UninitedUpwardsE
}
{
   <insert_a_suppression_name_here>
   Memcheck:Leak
   match-leak-kinds: reachable
   fun:calloc
   fun:_ZN4objc8DenseMapIP10objc_classS2_NS_17DenseMapValueInfoIS2_EENS_12DenseMapInfoIS2_EENS_6detail12DenseMapPairIS2_S2_EEE4growEj
   fun:_ZL16addRemappedClassP10objc_classS0_
   fun:objc_initializeClassPair
   fun:objc_registerClassPair
   fun:__CFStringCreateImmutableFunnel3
   fun:__CFInitializeLinkCheck
   fun:_ZN16ImageLoaderMachO11doImageInitERKN11ImageLoader11LinkContextE
   fun:_ZN16ImageLoaderMachO16doInitializationERKN11ImageLoader11LinkContextE
   fun:_ZN11ImageLoader23recursiveInitializationERKNS_11LinkContextEjPKcRNS_21InitializerTimingListERNS_15UninitedUpwardsE
   fun:_ZN11ImageLoader23recursiveInitializationERKNS_11LinkContextEjPKcRNS_21InitializerTimingListERNS_15UninitedUpwardsE
   fun:_ZN11ImageLoader23recursiveInitializationERKNS_11LinkContextEjPKcRNS_21InitializerTimingListERNS_15UninitedUpwardsE
}
{
   <insert_a_suppression_name_here>
   Memcheck:Leak
   match-leak-kinds: reachable
   fun:calloc
   fun:_ZN4objc8DenseMapIP10objc_classS2_NS_17DenseMapValueInfoIS2_EENS_12DenseMapInfoIS2_EENS_6detail12DenseMapPairIS2_S2_EEE4growEj
   fun:_ZN10objc_class11mangledNameEv
   fun:_ZL16addRemappedClassP10objc_classS0_
   fun:objc_initializeClassPair
   fun:objc_registerClassPair
   fun:__CFStringCreateImmutableFunnel3
   fun:__CFInitializeLinkCheck
   fun:_ZN16ImageLoaderMachO11doImageInitERKN11ImageLoader11LinkContextE
   fun:_ZN16ImageLoaderMachO16doInitializationERKN11ImageLoader11LinkContextE
   fun:_ZN11ImageLoader23recursiveInitializationERKNS_11LinkContextEjPKcRNS_21InitializerTimingListERNS_15UninitedUpwardsE
   fun:_ZN11ImageLoader23recursiveInitializationERKNS_11LinkContextEjPKcRNS_21InitializerTimingListERNS_15UninitedUpwardsE
}
{
   <insert_a_suppression_name_here>
   Memcheck:Leak
   match-leak-kinds: reachable
   fun:calloc
   fun:_ZN4objc8DenseMapIP10objc_classS2_NS_17DenseMapValueInfoIS2_EENS_12DenseMapInfoIS2_EENS_6detail12DenseMapPairIS2_S2_EEE4growEj
   fun:_ZN10objc_class11mangledNameEv
   fun:_ZN10objc_class11mangledNameEv
   fun:_ZL16addRemappedClassP10objc_classS0_
   fun:objc_initializeClassPair
   fun:objc_registerClassPair
   fun:__CFStringCreateImmutableFunnel3
   fun:__CFInitializeLinkCheck
   fun:_ZN16ImageLoaderMachO11doImageInitERKN11ImageLoader11LinkContextE
   fun:_ZN16ImageLoaderMachO16doInitializationERKN11ImageLoader11LinkContextE
   fun:_ZN11ImageLoader23recursiveInitializationERKNS_11LinkContextEjPKcRNS_21InitializerTimingListERNS_15UninitedUpwardsE
}
{
   <insert_a_suppression_name_here>
   Memcheck:Leak
   match-leak-kinds: reachable
   fun:calloc
   fun:_ZN4objc8DenseMapIP10objc_classS2_NS_17DenseMapValueInfoIS2_EENS_12DenseMapInfoIS2_EENS_6detail12DenseMapPairIS2_S2_EEE4growEj
   fun:_ZN10objc_class11mangledNameEv
   fun:_ZL16addRemappedClassP10objc_classS0_
   fun:objc_initializeClassPair
   fun:objc_registerClassPair
   fun:__CFStringCreateImmutableFunnel3
   fun:__CFInitializeLinkCheck
   fun:_ZN16ImageLoaderMachO11doImageInitERKN11ImageLoader11LinkContextE
   fun:_ZN16ImageLoaderMachO16doInitializationERKN11ImageLoader11LinkContextE
   fun:_ZN11ImageLoader23recursiveInitializationERKNS_11LinkContextEjPKcRNS_21InitializerTimingListERNS_15UninitedUpwardsE
   fun:_ZN11ImageLoader23recursiveInitializationERKNS_11LinkContextEjPKcRNS_21InitializerTimingListERNS_15UninitedUpwardsE
}
{
   <insert_a_suppression_name_here>
   Memcheck:Leak
   match-leak-kinds: reachable
   fun:malloc_zone_calloc
   fun:__NSSingleObjectArrayI_new
   fun:__CFStringCreateImmutableFunnel3
   fun:__CFStringCreateImmutableFunnel3
   fun:_CFLibraryVersionCompare
   fun:_ZN16ImageLoaderMachO11doImageInitERKN11ImageLoader11LinkContextE
   fun:_ZN16ImageLoaderMachO16doInitializationERKN11ImageLoader11LinkContextE
   fun:_ZN11ImageLoader23recursiveInitializationERKNS_11LinkContextEjPKcRNS_21InitializerTimingListERNS_15UninitedUpwardsE
   fun:_ZN11ImageLoader23recursiveInitializationERKNS_11LinkContextEjPKcRNS_21InitializerTimingListERNS_15UninitedUpwardsE
   fun:_ZN11ImageLoader23recursiveInitializationERKNS_11LinkContextEjPKcRNS_21InitializerTimingListERNS_15UninitedUpwardsE
   fun:_ZN11ImageLoader23recursiveInitializationERKNS_11LinkContextEjPKcRNS_21InitializerTimingListERNS_15UninitedUpwardsE
   fun:_ZN11ImageLoader23recursiveInitializationERKNS_11LinkContextEjPKcRNS_21InitializerTimingListERNS_15UninitedUpwardsE
}
{
   <insert_a_suppression_name_here>
   Memcheck:Leak
   match-leak-kinds: reachable
   fun:calloc
   fun:_ZN4objc8DenseMapIP10objc_classS2_NS_17DenseMapValueInfoIS2_EENS_12DenseMapInfoIS2_EENS_6detail12DenseMapPairIS2_S2_EEE4growEj
   fun:_ZL16addRemappedClassP10objc_classS0_
   fun:objc_initializeClassPair
   fun:__CFProcessIsRestricted
   fun:_dispatch_client_callout
   fun:_dispatch_once_callout
   fun:_CFProcessPath
   fun:__exceptionInit
   fun:_ZN16ImageLoaderMachO11doImageInitERKN11ImageLoader11LinkContextE
   fun:_ZN16ImageLoaderMachO16doInitializationERKN11ImageLoader11LinkContextE
   fun:_ZN11ImageLoader23recursiveInitializationERKNS_11LinkContextEjPKcRNS_21InitializerTimingListERNS_15UninitedUpwardsE
}
{
   <insert_a_suppression_name_here>
   Memcheck:Leak
   match-leak-kinds: reachable
   fun:calloc
   fun:_ZN4objc8DenseMapIP10objc_classS2_NS_17DenseMapValueInfoIS2_EENS_12DenseMapInfoIS2_EENS_6detail12DenseMapPairIS2_S2_EEE4growEj
   fun:_ZN10objc_class11mangledNameEv
   fun:_ZL16addRemappedClassP10objc_classS0_
   fun:objc_initializeClassPair
   fun:__CFProcessIsRestricted
   fun:_dispatch_client_callout
   fun:_dispatch_once_callout
   fun:_CFProcessPath
   fun:__exceptionInit
   fun:_ZN16ImageLoaderMachO11doImageInitERKN11ImageLoader11LinkContextE
   fun:_ZN16ImageLoaderMachO16doInitializationERKN11ImageLoader11LinkContextE
}
{
   <insert_a_suppression_name_here>
   Memcheck:Leak
   match-leak-kinds: reachable
   fun:calloc
   fun:_ZN4objc8DenseMapIP10objc_classS2_NS_17DenseMapValueInfoIS2_EENS_12DenseMapInfoIS2_EENS_6detail12DenseMapPairIS2_S2_EEE4growEj
   fun:_ZL16addRemappedClassP10objc_classS0_
   fun:objc_initializeClassPair
   fun:__CFDictionaryCreateGeneric
   fun:_CFStringGetUserDefaultEncoding
   fun:_ZN16ImageLoaderMachO11doImageInitERKN11ImageLoader11LinkContextE
   fun:_ZN16ImageLoaderMachO16doInitializationERKN11ImageLoader11LinkContextE
   fun:_ZN11ImageLoader23recursiveInitializationERKNS_11LinkContextEjPKcRNS_21InitializerTimingListERNS_15UninitedUpwardsE
   fun:_ZN11ImageLoader23recursiveInitializationERKNS_11LinkContextEjPKcRNS_21InitializerTimingListERNS_15UninitedUpwardsE
   fun:_ZN11ImageLoader23recursiveInitializationERKNS_11LinkContextEjPKcRNS_21InitializerTimingListERNS_15UninitedUpwardsE
   fun:_ZN11ImageLoader23recursiveInitializationERKNS_11LinkContextEjPKcRNS_21InitializerTimingListERNS_15UninitedUpwardsE
}
{
   <insert_a_suppression_name_here>
   Memcheck:Leak
   match-leak-kinds: reachable
   fun:calloc
   fun:_ZN4objc8DenseMapIP10objc_classS2_NS_17DenseMapValueInfoIS2_EENS_12DenseMapInfoIS2_EENS_6detail12DenseMapPairIS2_S2_EEE4growEj
   fun:_ZN10objc_class11mangledNameEv
   fun:_ZL16addRemappedClassP10objc_classS0_
   fun:objc_initializeClassPair
   fun:__CFDictionaryCreateGeneric
   fun:_CFStringGetUserDefaultEncoding
   fun:_ZN16ImageLoaderMachO11doImageInitERKN11ImageLoader11LinkContextE
   fun:_ZN16ImageLoaderMachO16doInitializationERKN11ImageLoader11LinkContextE
   fun:_ZN11ImageLoader23recursiveInitializationERKNS_11LinkContextEjPKcRNS_21InitializerTimingListERNS_15UninitedUpwardsE
   fun:_ZN11ImageLoader23recursiveInitializationERKNS_11LinkContextEjPKcRNS_21InitializerTimingListERNS_15UninitedUpwardsE
   fun:_ZN11ImageLoader23recursiveInitializationERKNS_11LinkContextEjPKcRNS_21InitializerTimingListERNS_15UninitedUpwardsE
}
{
   <insert_a_suppression_name_here>
   Memcheck:Leak
   match-leak-kinds: reachable
   fun:calloc
   fun:_ZN4objc8DenseMapIP10objc_classS2_NS_17DenseMapValueInfoIS2_EENS_12DenseMapInfoIS2_EENS_6detail12DenseMapPairIS2_S2_EEE4growEj
   fun:_ZN10objc_class11mangledNameEv
   fun:_ZN10objc_class11mangledNameEv
   fun:_ZL16addRemappedClassP10objc_classS0_
   fun:objc_initializeClassPair
   fun:__CFDictionaryCreateGeneric
   fun:_CFStringGetUserDefaultEncoding
   fun:_ZN16ImageLoaderMachO11doImageInitERKN11ImageLoader11LinkContextE
   fun:_ZN16ImageLoaderMachO16doInitializationERKN11ImageLoader11LinkContextE
   fun:_ZN11ImageLoader23recursiveInitializationERKNS_11LinkContextEjPKcRNS_21InitializerTimingListERNS_15UninitedUpwardsE
   fun:_ZN11ImageLoader23recursiveInitializationERKNS_11LinkContextEjPKcRNS_21InitializerTimingListERNS_15UninitedUpwardsE
}
{
   <insert_a_suppression_name_here>
   Memcheck:Leak
   match-leak-kinds: reachable
   fun:calloc
   fun:_ZN4objc8DenseMapIP10objc_classS2_NS_17DenseMapValueInfoIS2_EENS_12DenseMapInfoIS2_EENS_6detail12DenseMapPairIS2_S2_EEE4growEj
   fun:_ZN10objc_class11mangledNameEv
   fun:_ZL16addRemappedClassP10objc_classS0_
   fun:objc_initializeClassPair
   fun:__CFDictionaryCreateGeneric
   fun:_CFStringGetUserDefaultEncoding
   fun:_ZN16ImageLoaderMachO11doImageInitERKN11ImageLoader11LinkContextE
   fun:_ZN16ImageLoaderMachO16doInitializationERKN11ImageLoader11LinkContextE
   fun:_ZN11ImageLoader23recursiveInitializationERKNS_11LinkContextEjPKcRNS_21InitializerTimingListERNS_15UninitedUpwardsE
   fun:_ZN11ImageLoader23recursiveInitializationERKNS_11LinkContextEjPKcRNS_21InitializerTimingListERNS_15UninitedUpwardsE
   fun:_ZN11ImageLoader23recursiveInitializationERKNS_11LinkContextEjPKcRNS_21InitializerTimingListERNS_15UninitedUpwardsE
}
{
   <insert_a_suppression_name_here>
   Memcheck:Leak
   match-leak-kinds: reachable
   fun:calloc
   fun:object_getIndexedIvars
   fun:+[NSObject new]
   fun:__CFDictionaryCreateGeneric
   fun:_CFStringGetUserDefaultEncoding
   fun:_ZN16ImageLoaderMachO11doImageInitERKN11ImageLoader11LinkContextE
   fun:_ZN16ImageLoaderMachO16doInitializationERKN11ImageLoader11LinkContextE
   fun:_ZN11ImageLoader23recursiveInitializationERKNS_11LinkContextEjPKcRNS_21InitializerTimingListERNS_15UninitedUpwardsE
   fun:_ZN11ImageLoader23recursiveInitializationERKNS_11LinkContextEjPKcRNS_21InitializerTimingListERNS_15UninitedUpwardsE
   fun:_ZN11ImageLoader23recursiveInitializationERKNS_11LinkContextEjPKcRNS_21InitializerTimingListERNS_15UninitedUpwardsE
   fun:_ZN11ImageLoader23recursiveInitializationERKNS_11LinkContextEjPKcRNS_21InitializerTimingListERNS_15UninitedUpwardsE
   fun:_ZN11ImageLoader23recursiveInitializationERKNS_11LinkContextEjPKcRNS_21InitializerTimingListERNS_15UninitedUpwardsE
}
{
   <insert_a_suppression_name_here>
   Memcheck:Leak
   match-leak-kinds: reachable
   fun:calloc
   fun:object_getIndexedIvars
   fun:+[NSObject new]
   fun:__CFDictionaryCreateGeneric
   fun:_CFStringGetUserDefaultEncoding
   fun:_ZN16ImageLoaderMachO11doImageInitERKN11ImageLoader11LinkContextE
   fun:_ZN16ImageLoaderMachO16doInitializationERKN11ImageLoader11LinkContextE
   fun:_ZN11ImageLoader23recursiveInitializationERKNS_11LinkContextEjPKcRNS_21InitializerTimingListERNS_15UninitedUpwardsE
   fun:_ZN11ImageLoader23recursiveInitializationERKNS_11LinkContextEjPKcRNS_21InitializerTimingListERNS_15UninitedUpwardsE
   fun:_ZN11ImageLoader23recursiveInitializationERKNS_11LinkContextEjPKcRNS_21InitializerTimingListERNS_15UninitedUpwardsE
   fun:_ZN11ImageLoader23recursiveInitializationERKNS_11LinkContextEjPKcRNS_21InitializerTimingListERNS_15UninitedUpwardsE
   fun:_ZN11ImageLoader23recursiveInitializationERKNS_11LinkContextEjPKcRNS_21InitializerTimingListERNS_15UninitedUpwardsE
}
{
   <insert_a_suppression_name_here>
   Memcheck:Leak
   match-leak-kinds: reachable
   fun:calloc
   fun:_ZN4objc8DenseMapIP10objc_classS2_NS_17DenseMapValueInfoIS2_EENS_12DenseMapInfoIS2_EENS_6detail12DenseMapPairIS2_S2_EEE4growEj
   fun:_ZL16addRemappedClassP10objc_classS0_
   fun:objc_initializeClassPair
   fun:__CFDictionaryCreateGeneric
   fun:_CFStringGetUserDefaultEncoding
   fun:_ZN16ImageLoaderMachO11doImageInitERKN11ImageLoader11LinkContextE
   fun:_ZN16ImageLoaderMachO16doInitializationERKN11ImageLoader11LinkContextE
   fun:_ZN11ImageLoader23recursiveInitializationERKNS_11LinkContextEjPKcRNS_21InitializerTimingListERNS_15UninitedUpwardsE
   fun:_ZN11ImageLoader23recursiveInitializationERKNS_11LinkContextEjPKcRNS_21InitializerTimingListERNS_15UninitedUpwardsE
   fun:_ZN11ImageLoader23recursiveInitializationERKNS_11LinkContextEjPKcRNS_21InitializerTimingListERNS_15UninitedUpwardsE
   fun:_ZN11ImageLoader23recursiveInitializationERKNS_11LinkContextEjPKcRNS_21InitializerTimingListERNS_15UninitedUpwardsE
}
{
   <insert_a_suppression_name_here>
   Memcheck:Leak
   match-leak-kinds: reachable
   fun:calloc
   fun:_ZN4objc8DenseMapIP10objc_classS2_NS_17DenseMapValueInfoIS2_EENS_12DenseMapInfoIS2_EENS_6detail12DenseMapPairIS2_S2_EEE4growEj
   fun:_ZN10objc_class11mangledNameEv
   fun:_ZL16addRemappedClassP10objc_classS0_
   fun:objc_initializeClassPair
   fun:__CFDictionaryCreateGeneric
   fun:_CFStringGetUserDefaultEncoding
   fun:_ZN16ImageLoaderMachO11doImageInitERKN11ImageLoader11LinkContextE
   fun:_ZN16ImageLoaderMachO16doInitializationERKN11ImageLoader11LinkContextE
   fun:_ZN11ImageLoader23recursiveInitializationERKNS_11LinkContextEjPKcRNS_21InitializerTimingListERNS_15UninitedUpwardsE
   fun:_ZN11ImageLoader23recursiveInitializationERKNS_11LinkContextEjPKcRNS_21InitializerTimingListERNS_15UninitedUpwardsE
   fun:_ZN11ImageLoader23recursiveInitializationERKNS_11LinkContextEjPKcRNS_21InitializerTimingListERNS_15UninitedUpwardsE
}
{
   <insert_a_suppression_name_here>
   Memcheck:Leak
   match-leak-kinds: reachable
   fun:calloc
   fun:object_getIndexedIvars
   fun:+[NSObject new]
   fun:__CFDictionaryCreateGeneric
   fun:_CFStringGetUserDefaultEncoding
   fun:_ZN16ImageLoaderMachO11doImageInitERKN11ImageLoader11LinkContextE
   fun:_ZN16ImageLoaderMachO16doInitializationERKN11ImageLoader11LinkContextE
   fun:_ZN11ImageLoader23recursiveInitializationERKNS_11LinkContextEjPKcRNS_21InitializerTimingListERNS_15UninitedUpwardsE
   fun:_ZN11ImageLoader23recursiveInitializationERKNS_11LinkContextEjPKcRNS_21InitializerTimingListERNS_15UninitedUpwardsE
   fun:_ZN11ImageLoader23recursiveInitializationERKNS_11LinkContextEjPKcRNS_21InitializerTimingListERNS_15UninitedUpwardsE
   fun:_ZN11ImageLoader23recursiveInitializationERKNS_11LinkContextEjPKcRNS_21InitializerTimingListERNS_15UninitedUpwardsE
   fun:_ZN11ImageLoader23recursiveInitializationERKNS_11LinkContextEjPKcRNS_21InitializerTimingListERNS_15UninitedUpwardsE
}
{
   <insert_a_suppression_name_here>
   Memcheck:Leak
   match-leak-kinds: reachable
   fun:calloc
   fun:object_getIndexedIvars
   fun:+[NSObject new]
   fun:__CFDictionaryCreateGeneric
   fun:_CFStringGetUserDefaultEncoding
   fun:_ZN16ImageLoaderMachO11doImageInitERKN11ImageLoader11LinkContextE
   fun:_ZN16ImageLoaderMachO16doInitializationERKN11ImageLoader11LinkContextE
   fun:_ZN11ImageLoader23recursiveInitializationERKNS_11LinkContextEjPKcRNS_21InitializerTimingListERNS_15UninitedUpwardsE
   fun:_ZN11ImageLoader23recursiveInitializationERKNS_11LinkContextEjPKcRNS_21InitializerTimingListERNS_15UninitedUpwardsE
   fun:_ZN11ImageLoader23recursiveInitializationERKNS_11LinkContextEjPKcRNS_21InitializerTimingListERNS_15UninitedUpwardsE
   fun:_ZN11ImageLoader23recursiveInitializationERKNS_11LinkContextEjPKcRNS_21InitializerTimingListERNS_15UninitedUpwardsE
   fun:_ZN11ImageLoader23recursiveInitializationERKNS_11LinkContextEjPKcRNS_21InitializerTimingListERNS_15UninitedUpwardsE
}
{
   <insert_a_suppression_name_here>
   Memcheck:Leak
   match-leak-kinds: reachable
   fun:calloc
   fun:_ZN4objc8DenseMapIP10objc_classS2_NS_17DenseMapValueInfoIS2_EENS_12DenseMapInfoIS2_EENS_6detail12DenseMapPairIS2_S2_EEE4growEj
   fun:_ZL16addRemappedClassP10objc_classS0_
   fun:objc_initializeClassPair
   fun:__CFDictionaryCreateGeneric
   fun:_CFStringGetUserDefaultEncoding
   fun:_ZN16ImageLoaderMachO11doImageInitERKN11ImageLoader11LinkContextE
   fun:_ZN16ImageLoaderMachO16doInitializationERKN11ImageLoader11LinkContextE
   fun:_ZN11ImageLoader23recursiveInitializationERKNS_11LinkContextEjPKcRNS_21InitializerTimingListERNS_15UninitedUpwardsE
   fun:_ZN11ImageLoader23recursiveInitializationERKNS_11LinkContextEjPKcRNS_21InitializerTimingListERNS_15UninitedUpwardsE
   fun:_ZN11ImageLoader23recursiveInitializationERKNS_11LinkContextEjPKcRNS_21InitializerTimingListERNS_15UninitedUpwardsE
   fun:_ZN11ImageLoader23recursiveInitializationERKNS_11LinkContextEjPKcRNS_21InitializerTimingListERNS_15UninitedUpwardsE
}
{
   <insert_a_suppression_name_here>
   Memcheck:Leak
   match-leak-kinds: reachable
   fun:calloc
   fun:_ZN4objc8DenseMapIP10objc_classS2_NS_17DenseMapValueInfoIS2_EENS_12DenseMapInfoIS2_EENS_6detail12DenseMapPairIS2_S2_EEE4growEj
   fun:_ZN10objc_class11mangledNameEv
   fun:_ZL16addRemappedClassP10objc_classS0_
   fun:objc_initializeClassPair
   fun:__CFDictionaryCreateGeneric
   fun:_CFStringGetUserDefaultEncoding
   fun:_ZN16ImageLoaderMachO11doImageInitERKN11ImageLoader11LinkContextE
   fun:_ZN16ImageLoaderMachO16doInitializationERKN11ImageLoader11LinkContextE
   fun:_ZN11ImageLoader23recursiveInitializationERKNS_11LinkContextEjPKcRNS_21InitializerTimingListERNS_15UninitedUpwardsE
   fun:_ZN11ImageLoader23recursiveInitializationERKNS_11LinkContextEjPKcRNS_21InitializerTimingListERNS_15UninitedUpwardsE
   fun:_ZN11ImageLoader23recursiveInitializationERKNS_11LinkContextEjPKcRNS_21InitializerTimingListERNS_15UninitedUpwardsE
}
{
   <insert_a_suppression_name_here>
   Memcheck:Leak
   match-leak-kinds: reachable
   fun:calloc
   fun:object_getIndexedIvars
   fun:+[NSObject new]
   fun:__CFDictionaryCreateGeneric
   fun:_CFStringGetUserDefaultEncoding
   fun:_ZN16ImageLoaderMachO11doImageInitERKN11ImageLoader11LinkContextE
   fun:_ZN16ImageLoaderMachO16doInitializationERKN11ImageLoader11LinkContextE
   fun:_ZN11ImageLoader23recursiveInitializationERKNS_11LinkContextEjPKcRNS_21InitializerTimingListERNS_15UninitedUpwardsE
   fun:_ZN11ImageLoader23recursiveInitializationERKNS_11LinkContextEjPKcRNS_21InitializerTimingListERNS_15UninitedUpwardsE
   fun:_ZN11ImageLoader23recursiveInitializationERKNS_11LinkContextEjPKcRNS_21InitializerTimingListERNS_15UninitedUpwardsE
   fun:_ZN11ImageLoader23recursiveInitializationERKNS_11LinkContextEjPKcRNS_21InitializerTimingListERNS_15UninitedUpwardsE
   fun:_ZN11ImageLoader23recursiveInitializationERKNS_11LinkContextEjPKcRNS_21InitializerTimingListERNS_15UninitedUpwardsE
}
{
   <insert_a_suppression_name_here>
   Memcheck:Leak
   match-leak-kinds: reachable
   fun:calloc
   fun:object_getIndexedIvars
   fun:+[NSObject new]
   fun:__CFDictionaryCreateGeneric
   fun:_CFStringGetUserDefaultEncoding
   fun:_ZN16ImageLoaderMachO11doImageInitERKN11ImageLoader11LinkContextE
   fun:_ZN16ImageLoaderMachO16doInitializationERKN11ImageLoader11LinkContextE
   fun:_ZN11ImageLoader23recursiveInitializationERKNS_11LinkContextEjPKcRNS_21InitializerTimingListERNS_15UninitedUpwardsE
   fun:_ZN11ImageLoader23recursiveInitializationERKNS_11LinkContextEjPKcRNS_21InitializerTimingListERNS_15UninitedUpwardsE
   fun:_ZN11ImageLoader23recursiveInitializationERKNS_11LinkContextEjPKcRNS_21InitializerTimingListERNS_15UninitedUpwardsE
   fun:_ZN11ImageLoader23recursiveInitializationERKNS_11LinkContextEjPKcRNS_21InitializerTimingListERNS_15UninitedUpwardsE
   fun:_ZN11ImageLoader23recursiveInitializationERKNS_11LinkContextEjPKcRNS_21InitializerTimingListERNS_15UninitedUpwardsE
}
{
   <insert_a_suppression_name_here>
   Memcheck:Leak
   match-leak-kinds: reachable
   fun:calloc
   fun:_ZN4objc8DenseMapIP10objc_classS2_NS_17DenseMapValueInfoIS2_EENS_12DenseMapInfoIS2_EENS_6detail12DenseMapPairIS2_S2_EEE4growEj
   fun:_ZL16addRemappedClassP10objc_classS0_
   fun:objc_initializeClassPair
   fun:__CFDictionaryCreateGeneric
   fun:_CFStringGetUserDefaultEncoding
   fun:_ZN16ImageLoaderMachO11doImageInitERKN11ImageLoader11LinkContextE
   fun:_ZN16ImageLoaderMachO16doInitializationERKN11ImageLoader11LinkContextE
   fun:_ZN11ImageLoader23recursiveInitializationERKNS_11LinkContextEjPKcRNS_21InitializerTimingListERNS_15UninitedUpwardsE
   fun:_ZN11ImageLoader23recursiveInitializationERKNS_11LinkContextEjPKcRNS_21InitializerTimingListERNS_15UninitedUpwardsE
   fun:_ZN11ImageLoader23recursiveInitializationERKNS_11LinkContextEjPKcRNS_21InitializerTimingListERNS_15UninitedUpwardsE
   fun:_ZN11ImageLoader23recursiveInitializationERKNS_11LinkContextEjPKcRNS_21InitializerTimingListERNS_15UninitedUpwardsE
}
{
   <insert_a_suppression_name_here>
   Memcheck:Leak
   match-leak-kinds: reachable
   fun:calloc
   fun:_ZN4objc8DenseMapIP10objc_classS2_NS_17DenseMapValueInfoIS2_EENS_12DenseMapInfoIS2_EENS_6detail12DenseMapPairIS2_S2_EEE4growEj
   fun:_ZN10objc_class11mangledNameEv
   fun:_ZL16addRemappedClassP10objc_classS0_
   fun:objc_initializeClassPair
   fun:__CFDictionaryCreateGeneric
   fun:_CFStringGetUserDefaultEncoding
   fun:_ZN16ImageLoaderMachO11doImageInitERKN11ImageLoader11LinkContextE
   fun:_ZN16ImageLoaderMachO16doInitializationERKN11ImageLoader11LinkContextE
   fun:_ZN11ImageLoader23recursiveInitializationERKNS_11LinkContextEjPKcRNS_21InitializerTimingListERNS_15UninitedUpwardsE
   fun:_ZN11ImageLoader23recursiveInitializationERKNS_11LinkContextEjPKcRNS_21InitializerTimingListERNS_15UninitedUpwardsE
   fun:_ZN11ImageLoader23recursiveInitializationERKNS_11LinkContextEjPKcRNS_21InitializerTimingListERNS_15UninitedUpwardsE
}
{
   <insert_a_suppression_name_here>
   Memcheck:Leak
   match-leak-kinds: reachable
   fun:calloc
   fun:object_getIndexedIvars
   fun:+[NSObject new]
   fun:CFBasicHashCreate
   fun:_CFStringGetUserDefaultEncoding
   fun:_ZN16ImageLoaderMachO11doImageInitERKN11ImageLoader11LinkContextE
   fun:_ZN16ImageLoaderMachO16doInitializationERKN11ImageLoader11LinkContextE
   fun:_ZN11ImageLoader23recursiveInitializationERKNS_11LinkContextEjPKcRNS_21InitializerTimingListERNS_15UninitedUpwardsE
   fun:_ZN11ImageLoader23recursiveInitializationERKNS_11LinkContextEjPKcRNS_21InitializerTimingListERNS_15UninitedUpwardsE
   fun:_ZN11ImageLoader23recursiveInitializationERKNS_11LinkContextEjPKcRNS_21InitializerTimingListERNS_15UninitedUpwardsE
   fun:_ZN11ImageLoader23recursiveInitializationERKNS_11LinkContextEjPKcRNS_21InitializerTimingListERNS_15UninitedUpwardsE
   fun:_ZN11ImageLoader23recursiveInitializationERKNS_11LinkContextEjPKcRNS_21InitializerTimingListERNS_15UninitedUpwardsE
}
{
   <insert_a_suppression_name_here>
   Memcheck:Leak
   match-leak-kinds: reachable
   fun:calloc
   fun:object_getIndexedIvars
   fun:+[NSObject new]
   fun:CFBasicHashCreate
   fun:_CFStringGetUserDefaultEncoding
   fun:_ZN16ImageLoaderMachO11doImageInitERKN11ImageLoader11LinkContextE
   fun:_ZN16ImageLoaderMachO16doInitializationERKN11ImageLoader11LinkContextE
   fun:_ZN11ImageLoader23recursiveInitializationERKNS_11LinkContextEjPKcRNS_21InitializerTimingListERNS_15UninitedUpwardsE
   fun:_ZN11ImageLoader23recursiveInitializationERKNS_11LinkContextEjPKcRNS_21InitializerTimingListERNS_15UninitedUpwardsE
   fun:_ZN11ImageLoader23recursiveInitializationERKNS_11LinkContextEjPKcRNS_21InitializerTimingListERNS_15UninitedUpwardsE
   fun:_ZN11ImageLoader23recursiveInitializationERKNS_11LinkContextEjPKcRNS_21InitializerTimingListERNS_15UninitedUpwardsE
   fun:_ZN11ImageLoader23recursiveInitializationERKNS_11LinkContextEjPKcRNS_21InitializerTimingListERNS_15UninitedUpwardsE
}
{
   <insert_a_suppression_name_here>
   Memcheck:Leak
   match-leak-kinds: reachable
   fun:calloc
   fun:_ZN4objc8DenseMapIP10objc_classS2_NS_17DenseMapValueInfoIS2_EENS_12DenseMapInfoIS2_EENS_6detail12DenseMapPairIS2_S2_EEE4growEj
   fun:_ZL16addRemappedClassP10objc_classS0_
   fun:objc_initializeClassPair
   fun:CFBasicHashCreate
   fun:_CFStringGetUserDefaultEncoding
   fun:_ZN16ImageLoaderMachO11doImageInitERKN11ImageLoader11LinkContextE
   fun:_ZN16ImageLoaderMachO16doInitializationERKN11ImageLoader11LinkContextE
   fun:_ZN11ImageLoader23recursiveInitializationERKNS_11LinkContextEjPKcRNS_21InitializerTimingListERNS_15UninitedUpwardsE
   fun:_ZN11ImageLoader23recursiveInitializationERKNS_11LinkContextEjPKcRNS_21InitializerTimingListERNS_15UninitedUpwardsE
   fun:_ZN11ImageLoader23recursiveInitializationERKNS_11LinkContextEjPKcRNS_21InitializerTimingListERNS_15UninitedUpwardsE
   fun:_ZN11ImageLoader23recursiveInitializationERKNS_11LinkContextEjPKcRNS_21InitializerTimingListERNS_15UninitedUpwardsE
}
{
   <insert_a_suppression_name_here>
   Memcheck:Leak
   match-leak-kinds: reachable
   fun:calloc
   fun:_ZN4objc8DenseMapIP10objc_classS2_NS_17DenseMapValueInfoIS2_EENS_12DenseMapInfoIS2_EENS_6detail12DenseMapPairIS2_S2_EEE4growEj
   fun:_ZN10objc_class11mangledNameEv
   fun:_ZL16addRemappedClassP10objc_classS0_
   fun:objc_initializeClassPair
   fun:CFBasicHashCreate
   fun:_CFStringGetUserDefaultEncoding
   fun:_ZN16ImageLoaderMachO11doImageInitERKN11ImageLoader11LinkContextE
   fun:_ZN16ImageLoaderMachO16doInitializationERKN11ImageLoader11LinkContextE
   fun:_ZN11ImageLoader23recursiveInitializationERKNS_11LinkContextEjPKcRNS_21InitializerTimingListERNS_15UninitedUpwardsE
   fun:_ZN11ImageLoader23recursiveInitializationERKNS_11LinkContextEjPKcRNS_21InitializerTimingListERNS_15UninitedUpwardsE
   fun:_ZN11ImageLoader23recursiveInitializationERKNS_11LinkContextEjPKcRNS_21InitializerTimingListERNS_15UninitedUpwardsE
}
{
   <insert_a_suppression_name_here>
   Memcheck:Leak
   match-leak-kinds: reachable
   fun:calloc
   fun:object_getIndexedIvars
   fun:+[NSObject new]
   fun:CFBasicHashCreate
   fun:_CFStringGetUserDefaultEncoding
   fun:_ZN16ImageLoaderMachO11doImageInitERKN11ImageLoader11LinkContextE
   fun:_ZN16ImageLoaderMachO16doInitializationERKN11ImageLoader11LinkContextE
   fun:_ZN11ImageLoader23recursiveInitializationERKNS_11LinkContextEjPKcRNS_21InitializerTimingListERNS_15UninitedUpwardsE
   fun:_ZN11ImageLoader23recursiveInitializationERKNS_11LinkContextEjPKcRNS_21InitializerTimingListERNS_15UninitedUpwardsE
   fun:_ZN11ImageLoader23recursiveInitializationERKNS_11LinkContextEjPKcRNS_21InitializerTimingListERNS_15UninitedUpwardsE
   fun:_ZN11ImageLoader23recursiveInitializationERKNS_11LinkContextEjPKcRNS_21InitializerTimingListERNS_15UninitedUpwardsE
   fun:_ZN11ImageLoader23recursiveInitializationERKNS_11LinkContextEjPKcRNS_21InitializerTimingListERNS_15UninitedUpwardsE
}
{
   <insert_a_suppression_name_here>
   Memcheck:Leak
   match-leak-kinds: reachable
   fun:calloc
   fun:object_getIndexedIvars
   fun:+[NSObject new]
   fun:CFBasicHashCreate
   fun:_CFStringGetUserDefaultEncoding
   fun:_ZN16ImageLoaderMachO11doImageInitERKN11ImageLoader11LinkContextE
   fun:_ZN16ImageLoaderMachO16doInitializationERKN11ImageLoader11LinkContextE
   fun:_ZN11ImageLoader23recursiveInitializationERKNS_11LinkContextEjPKcRNS_21InitializerTimingListERNS_15UninitedUpwardsE
   fun:_ZN11ImageLoader23recursiveInitializationERKNS_11LinkContextEjPKcRNS_21InitializerTimingListERNS_15UninitedUpwardsE
   fun:_ZN11ImageLoader23recursiveInitializationERKNS_11LinkContextEjPKcRNS_21InitializerTimingListERNS_15UninitedUpwardsE
   fun:_ZN11ImageLoader23recursiveInitializationERKNS_11LinkContextEjPKcRNS_21InitializerTimingListERNS_15UninitedUpwardsE
   fun:_ZN11ImageLoader23recursiveInitializationERKNS_11LinkContextEjPKcRNS_21InitializerTimingListERNS_15UninitedUpwardsE
}
{
   <insert_a_suppression_name_here>
   Memcheck:Leak
   match-leak-kinds: reachable
   fun:calloc
   fun:_ZN4objc8DenseMapIP10objc_classS2_NS_17DenseMapValueInfoIS2_EENS_12DenseMapInfoIS2_EENS_6detail12DenseMapPairIS2_S2_EEE4growEj
   fun:_ZL16addRemappedClassP10objc_classS0_
   fun:objc_initializeClassPair
   fun:CFBasicHashCreate
   fun:_CFStringGetUserDefaultEncoding
   fun:_ZN16ImageLoaderMachO11doImageInitERKN11ImageLoader11LinkContextE
   fun:_ZN16ImageLoaderMachO16doInitializationERKN11ImageLoader11LinkContextE
   fun:_ZN11ImageLoader23recursiveInitializationERKNS_11LinkContextEjPKcRNS_21InitializerTimingListERNS_15UninitedUpwardsE
   fun:_ZN11ImageLoader23recursiveInitializationERKNS_11LinkContextEjPKcRNS_21InitializerTimingListERNS_15UninitedUpwardsE
   fun:_ZN11ImageLoader23recursiveInitializationERKNS_11LinkContextEjPKcRNS_21InitializerTimingListERNS_15UninitedUpwardsE
   fun:_ZN11ImageLoader23recursiveInitializationERKNS_11LinkContextEjPKcRNS_21InitializerTimingListERNS_15UninitedUpwardsE
}
{
   <insert_a_suppression_name_here>
   Memcheck:Leak
   match-leak-kinds: reachable
   fun:calloc
   fun:_ZN4objc8DenseMapIP10objc_classS2_NS_17DenseMapValueInfoIS2_EENS_12DenseMapInfoIS2_EENS_6detail12DenseMapPairIS2_S2_EEE4growEj
   fun:_ZN10objc_class11mangledNameEv
   fun:_ZL16addRemappedClassP10objc_classS0_
   fun:objc_initializeClassPair
   fun:CFBasicHashCreate
   fun:_CFStringGetUserDefaultEncoding
   fun:_ZN16ImageLoaderMachO11doImageInitERKN11ImageLoader11LinkContextE
   fun:_ZN16ImageLoaderMachO16doInitializationERKN11ImageLoader11LinkContextE
   fun:_ZN11ImageLoader23recursiveInitializationERKNS_11LinkContextEjPKcRNS_21InitializerTimingListERNS_15UninitedUpwardsE
   fun:_ZN11ImageLoader23recursiveInitializationERKNS_11LinkContextEjPKcRNS_21InitializerTimingListERNS_15UninitedUpwardsE
   fun:_ZN11ImageLoader23recursiveInitializationERKNS_11LinkContextEjPKcRNS_21InitializerTimingListERNS_15UninitedUpwardsE
}
{
   <insert_a_suppression_name_here>
   Memcheck:Leak
   match-leak-kinds: reachable
   fun:calloc
   fun:object_getIndexedIvars
   fun:+[NSObject new]
   fun:CFBasicHashCreate
   fun:_CFStringGetUserDefaultEncoding
   fun:_ZN16ImageLoaderMachO11doImageInitERKN11ImageLoader11LinkContextE
   fun:_ZN16ImageLoaderMachO16doInitializationERKN11ImageLoader11LinkContextE
   fun:_ZN11ImageLoader23recursiveInitializationERKNS_11LinkContextEjPKcRNS_21InitializerTimingListERNS_15UninitedUpwardsE
   fun:_ZN11ImageLoader23recursiveInitializationERKNS_11LinkContextEjPKcRNS_21InitializerTimingListERNS_15UninitedUpwardsE
   fun:_ZN11ImageLoader23recursiveInitializationERKNS_11LinkContextEjPKcRNS_21InitializerTimingListERNS_15UninitedUpwardsE
   fun:_ZN11ImageLoader23recursiveInitializationERKNS_11LinkContextEjPKcRNS_21InitializerTimingListERNS_15UninitedUpwardsE
   fun:_ZN11ImageLoader23recursiveInitializationERKNS_11LinkContextEjPKcRNS_21InitializerTimingListERNS_15UninitedUpwardsE
}
{
   <insert_a_suppression_name_here>
   Memcheck:Leak
   match-leak-kinds: reachable
   fun:calloc
   fun:object_getIndexedIvars
   fun:+[NSObject new]
   fun:CFBasicHashCreate
   fun:_CFStringGetUserDefaultEncoding
   fun:_ZN16ImageLoaderMachO11doImageInitERKN11ImageLoader11LinkContextE
   fun:_ZN16ImageLoaderMachO16doInitializationERKN11ImageLoader11LinkContextE
   fun:_ZN11ImageLoader23recursiveInitializationERKNS_11LinkContextEjPKcRNS_21InitializerTimingListERNS_15UninitedUpwardsE
   fun:_ZN11ImageLoader23recursiveInitializationERKNS_11LinkContextEjPKcRNS_21InitializerTimingListERNS_15UninitedUpwardsE
   fun:_ZN11ImageLoader23recursiveInitializationERKNS_11LinkContextEjPKcRNS_21InitializerTimingListERNS_15UninitedUpwardsE
   fun:_ZN11ImageLoader23recursiveInitializationERKNS_11LinkContextEjPKcRNS_21InitializerTimingListERNS_15UninitedUpwardsE
   fun:_ZN11ImageLoader23recursiveInitializationERKNS_11LinkContextEjPKcRNS_21InitializerTimingListERNS_15UninitedUpwardsE
}
{
   <insert_a_suppression_name_here>
   Memcheck:Leak
   match-leak-kinds: reachable
   fun:calloc
   fun:_ZN4objc8DenseMapIP10objc_classS2_NS_17DenseMapValueInfoIS2_EENS_12DenseMapInfoIS2_EENS_6detail12DenseMapPairIS2_S2_EEE4growEj
   fun:_ZL16addRemappedClassP10objc_classS0_
   fun:objc_initializeClassPair
   fun:_NSToDoAtProcessStart
   fun:_NSInitializePlatform
   fun:objc_msgLookup_fpret
   fun:_ZN4dyldL12notifySingleE17dyld_image_statesPK11ImageLoaderPNS1_21InitializerTimingListE
   fun:_ZN11ImageLoader23recursiveInitializationERKNS_11LinkContextEjPKcRNS_21InitializerTimingListERNS_15UninitedUpwardsE
   fun:_ZN11ImageLoader23recursiveInitializationERKNS_11LinkContextEjPKcRNS_21InitializerTimingListERNS_15UninitedUpwardsE
   fun:_ZN11ImageLoader23recursiveInitializationERKNS_11LinkContextEjPKcRNS_21InitializerTimingListERNS_15UninitedUpwardsE
   fun:_ZN11ImageLoader23recursiveInitializationERKNS_11LinkContextEjPKcRNS_21InitializerTimingListERNS_15UninitedUpwardsE
}
{
   <insert_a_suppression_name_here>
   Memcheck:Leak
   match-leak-kinds: reachable
   fun:calloc
   fun:_ZN4objc8DenseMapIP10objc_classS2_NS_17DenseMapValueInfoIS2_EENS_12DenseMapInfoIS2_EENS_6detail12DenseMapPairIS2_S2_EEE4growEj
   fun:_ZN10objc_class11mangledNameEv
   fun:_ZL16addRemappedClassP10objc_classS0_
   fun:objc_initializeClassPair
   fun:_NSToDoAtProcessStart
   fun:_NSInitializePlatform
   fun:objc_msgLookup_fpret
   fun:_ZN4dyldL12notifySingleE17dyld_image_statesPK11ImageLoaderPNS1_21InitializerTimingListE
   fun:_ZN11ImageLoader23recursiveInitializationERKNS_11LinkContextEjPKcRNS_21InitializerTimingListERNS_15UninitedUpwardsE
   fun:_ZN11ImageLoader23recursiveInitializationERKNS_11LinkContextEjPKcRNS_21InitializerTimingListERNS_15UninitedUpwardsE
   fun:_ZN11ImageLoader23recursiveInitializationERKNS_11LinkContextEjPKcRNS_21InitializerTimingListERNS_15UninitedUpwardsE
}
{
   <insert_a_suppression_name_here>
   Memcheck:Leak
   match-leak-kinds: reachable
   fun:calloc
   fun:_ZN4objc8DenseMapIP10objc_classS2_NS_17DenseMapValueInfoIS2_EENS_12DenseMapInfoIS2_EENS_6detail12DenseMapPairIS2_S2_EEE4growEj
   fun:_ZL16addRemappedClassP10objc_classS0_
   fun:objc_initializeClassPair
   fun:_NSToDoAtProcessStart
   fun:_NSInitializePlatform
   fun:objc_msgLookup_fpret
   fun:_ZN4dyldL12notifySingleE17dyld_image_statesPK11ImageLoaderPNS1_21InitializerTimingListE
   fun:_ZN11ImageLoader23recursiveInitializationERKNS_11LinkContextEjPKcRNS_21InitializerTimingListERNS_15UninitedUpwardsE
   fun:_ZN11ImageLoader23recursiveInitializationERKNS_11LinkContextEjPKcRNS_21InitializerTimingListERNS_15UninitedUpwardsE
   fun:_ZN11ImageLoader23recursiveInitializationERKNS_11LinkContextEjPKcRNS_21InitializerTimingListERNS_15UninitedUpwardsE
   fun:_ZN11ImageLoader23recursiveInitializationERKNS_11LinkContextEjPKcRNS_21InitializerTimingListERNS_15UninitedUpwardsE
}
{
   <insert_a_suppression_name_here>
   Memcheck:Leak
   match-leak-kinds: reachable
   fun:calloc
   fun:_ZN4objc8DenseMapIP10objc_classS2_NS_17DenseMapValueInfoIS2_EENS_12DenseMapInfoIS2_EENS_6detail12DenseMapPairIS2_S2_EEE4growEj
   fun:_ZN10objc_class11mangledNameEv
   fun:_ZL16addRemappedClassP10objc_classS0_
   fun:objc_initializeClassPair
   fun:_NSToDoAtProcessStart
   fun:_NSInitializePlatform
   fun:objc_msgLookup_fpret
   fun:_ZN4dyldL12notifySingleE17dyld_image_statesPK11ImageLoaderPNS1_21InitializerTimingListE
   fun:_ZN11ImageLoader23recursiveInitializationERKNS_11LinkContextEjPKcRNS_21InitializerTimingListERNS_15UninitedUpwardsE
   fun:_ZN11ImageLoader23recursiveInitializationERKNS_11LinkContextEjPKcRNS_21InitializerTimingListERNS_15UninitedUpwardsE
   fun:_ZN11ImageLoader23recursiveInitializationERKNS_11LinkContextEjPKcRNS_21InitializerTimingListERNS_15UninitedUpwardsE
}
{
   <insert_a_suppression_name_here>
   Memcheck:Leak
   match-leak-kinds: reachable
   fun:calloc
   fun:_ZN4objc8DenseMapIP10objc_classS2_NS_17DenseMapValueInfoIS2_EENS_12DenseMapInfoIS2_EENS_6detail12DenseMapPairIS2_S2_EEE4growEj
   fun:_ZL16addRemappedClassP10objc_classS0_
   fun:objc_initializeClassPair
   fun:_NSToDoAtProcessStart
   fun:_NSInitializePlatform
   fun:objc_msgLookup_fpret
   fun:_ZN4dyldL12notifySingleE17dyld_image_statesPK11ImageLoaderPNS1_21InitializerTimingListE
   fun:_ZN11ImageLoader23recursiveInitializationERKNS_11LinkContextEjPKcRNS_21InitializerTimingListERNS_15UninitedUpwardsE
   fun:_ZN11ImageLoader23recursiveInitializationERKNS_11LinkContextEjPKcRNS_21InitializerTimingListERNS_15UninitedUpwardsE
   fun:_ZN11ImageLoader23recursiveInitializationERKNS_11LinkContextEjPKcRNS_21InitializerTimingListERNS_15UninitedUpwardsE
   fun:_ZN11ImageLoader23recursiveInitializationERKNS_11LinkContextEjPKcRNS_21InitializerTimingListERNS_15UninitedUpwardsE
}
{
   <insert_a_suppression_name_here>
   Memcheck:Leak
   match-leak-kinds: reachable
   fun:calloc
   fun:_ZN4objc8DenseMapIP10objc_classS2_NS_17DenseMapValueInfoIS2_EENS_12DenseMapInfoIS2_EENS_6detail12DenseMapPairIS2_S2_EEE4growEj
   fun:_ZN10objc_class11mangledNameEv
   fun:_ZL16addRemappedClassP10objc_classS0_
   fun:objc_initializeClassPair
   fun:_NSToDoAtProcessStart
   fun:_NSInitializePlatform
   fun:objc_msgLookup_fpret
   fun:_ZN4dyldL12notifySingleE17dyld_image_statesPK11ImageLoaderPNS1_21InitializerTimingListE
   fun:_ZN11ImageLoader23recursiveInitializationERKNS_11LinkContextEjPKcRNS_21InitializerTimingListERNS_15UninitedUpwardsE
   fun:_ZN11ImageLoader23recursiveInitializationERKNS_11LinkContextEjPKcRNS_21InitializerTimingListERNS_15UninitedUpwardsE
   fun:_ZN11ImageLoader23recursiveInitializationERKNS_11LinkContextEjPKcRNS_21InitializerTimingListERNS_15UninitedUpwardsE
}
{
   <insert_a_suppression_name_here>
   Memcheck:Leak
   match-leak-kinds: reachable
   fun:calloc
   fun:_ZN4objc8DenseMapIP10objc_classS2_NS_17DenseMapValueInfoIS2_EENS_12DenseMapInfoIS2_EENS_6detail12DenseMapPairIS2_S2_EEE4growEj
   fun:_ZN10objc_class11mangledNameEv
   fun:_ZN10objc_class11mangledNameEv
   fun:_ZL16addRemappedClassP10objc_classS0_
   fun:objc_initializeClassPair
   fun:_NSToDoAtProcessStart
   fun:_NSInitializePlatform
   fun:objc_msgLookup_fpret
   fun:_ZN4dyldL12notifySingleE17dyld_image_statesPK11ImageLoaderPNS1_21InitializerTimingListE
   fun:_ZN11ImageLoader23recursiveInitializationERKNS_11LinkContextEjPKcRNS_21InitializerTimingListERNS_15UninitedUpwardsE
   fun:_ZN11ImageLoader23recursiveInitializationERKNS_11LinkContextEjPKcRNS_21InitializerTimingListERNS_15UninitedUpwardsE
}
{
   <insert_a_suppression_name_here>
   Memcheck:Leak
   match-leak-kinds: reachable
   fun:calloc
   fun:_ZN4objc8DenseMapIP10objc_classS2_NS_17DenseMapValueInfoIS2_EENS_12DenseMapInfoIS2_EENS_6detail12DenseMapPairIS2_S2_EEE4growEj
   fun:_ZN10objc_class11mangledNameEv
   fun:_ZL16addRemappedClassP10objc_classS0_
   fun:objc_initializeClassPair
   fun:_NSToDoAtProcessStart
   fun:_NSInitializePlatform
   fun:objc_msgLookup_fpret
   fun:_ZN4dyldL12notifySingleE17dyld_image_statesPK11ImageLoaderPNS1_21InitializerTimingListE
   fun:_ZN11ImageLoader23recursiveInitializationERKNS_11LinkContextEjPKcRNS_21InitializerTimingListERNS_15UninitedUpwardsE
   fun:_ZN11ImageLoader23recursiveInitializationERKNS_11LinkContextEjPKcRNS_21InitializerTimingListERNS_15UninitedUpwardsE
   fun:_ZN11ImageLoader23recursiveInitializationERKNS_11LinkContextEjPKcRNS_21InitializerTimingListERNS_15UninitedUpwardsE
}
{
   <insert_a_suppression_name_here>
   Memcheck:Leak
   match-leak-kinds: reachable
   fun:calloc
   fun:_ZN4objc8DenseMapIP10objc_classS2_NS_17DenseMapValueInfoIS2_EENS_12DenseMapInfoIS2_EENS_6detail12DenseMapPairIS2_S2_EEE4growEj
   fun:_ZL16addRemappedClassP10objc_classS0_
   fun:objc_initializeClassPair
   fun:_NSToDoAtProcessStart
   fun:_NSInitializePlatform
   fun:objc_msgLookup_fpret
   fun:_ZN4dyldL12notifySingleE17dyld_image_statesPK11ImageLoaderPNS1_21InitializerTimingListE
   fun:_ZN11ImageLoader23recursiveInitializationERKNS_11LinkContextEjPKcRNS_21InitializerTimingListERNS_15UninitedUpwardsE
   fun:_ZN11ImageLoader23recursiveInitializationERKNS_11LinkContextEjPKcRNS_21InitializerTimingListERNS_15UninitedUpwardsE
   fun:_ZN11ImageLoader23recursiveInitializationERKNS_11LinkContextEjPKcRNS_21InitializerTimingListERNS_15UninitedUpwardsE
   fun:_ZN11ImageLoader23recursiveInitializationERKNS_11LinkContextEjPKcRNS_21InitializerTimingListERNS_15UninitedUpwardsE
}
{
   <insert_a_suppression_name_here>
   Memcheck:Leak
   match-leak-kinds: reachable
   fun:calloc
   fun:_ZN4objc8DenseMapIP10objc_classS2_NS_17DenseMapValueInfoIS2_EENS_12DenseMapInfoIS2_EENS_6detail12DenseMapPairIS2_S2_EEE4growEj
   fun:_ZN10objc_class11mangledNameEv
   fun:_ZL16addRemappedClassP10objc_classS0_
   fun:objc_initializeClassPair
   fun:_NSToDoAtProcessStart
   fun:_NSInitializePlatform
   fun:objc_msgLookup_fpret
   fun:_ZN4dyldL12notifySingleE17dyld_image_statesPK11ImageLoaderPNS1_21InitializerTimingListE
   fun:_ZN11ImageLoader23recursiveInitializationERKNS_11LinkContextEjPKcRNS_21InitializerTimingListERNS_15UninitedUpwardsE
   fun:_ZN11ImageLoader23recursiveInitializationERKNS_11LinkContextEjPKcRNS_21InitializerTimingListERNS_15UninitedUpwardsE
   fun:_ZN11ImageLoader23recursiveInitializationERKNS_11LinkContextEjPKcRNS_21InitializerTimingListERNS_15UninitedUpwardsE
}
{
   <insert_a_suppression_name_here>
   Memcheck:Leak
   match-leak-kinds: reachable
   fun:calloc
   fun:_ZN4objc8DenseMapIP10objc_classS2_NS_17DenseMapValueInfoIS2_EENS_12DenseMapInfoIS2_EENS_6detail12DenseMapPairIS2_S2_EEE4growEj
   fun:_ZN10objc_class11mangledNameEv
   fun:_ZN10objc_class11mangledNameEv
   fun:_ZL16addRemappedClassP10objc_classS0_
   fun:objc_initializeClassPair
   fun:_NSToDoAtProcessStart
   fun:_NSInitializePlatform
   fun:objc_msgLookup_fpret
   fun:_ZN4dyldL12notifySingleE17dyld_image_statesPK11ImageLoaderPNS1_21InitializerTimingListE
   fun:_ZN11ImageLoader23recursiveInitializationERKNS_11LinkContextEjPKcRNS_21InitializerTimingListERNS_15UninitedUpwardsE
   fun:_ZN11ImageLoader23recursiveInitializationERKNS_11LinkContextEjPKcRNS_21InitializerTimingListERNS_15UninitedUpwardsE
}
{
   <insert_a_suppression_name_here>
   Memcheck:Leak
   match-leak-kinds: reachable
   fun:calloc
   fun:_ZN4objc8DenseMapIP10objc_classS2_NS_17DenseMapValueInfoIS2_EENS_12DenseMapInfoIS2_EENS_6detail12DenseMapPairIS2_S2_EEE4growEj
   fun:_ZN10objc_class11mangledNameEv
   fun:_ZL16addRemappedClassP10objc_classS0_
   fun:objc_initializeClassPair
   fun:_NSToDoAtProcessStart
   fun:_NSInitializePlatform
   fun:objc_msgLookup_fpret
   fun:_ZN4dyldL12notifySingleE17dyld_image_statesPK11ImageLoaderPNS1_21InitializerTimingListE
   fun:_ZN11ImageLoader23recursiveInitializationERKNS_11LinkContextEjPKcRNS_21InitializerTimingListERNS_15UninitedUpwardsE
   fun:_ZN11ImageLoader23recursiveInitializationERKNS_11LinkContextEjPKcRNS_21InitializerTimingListERNS_15UninitedUpwardsE
   fun:_ZN11ImageLoader23recursiveInitializationERKNS_11LinkContextEjPKcRNS_21InitializerTimingListERNS_15UninitedUpwardsE
}
{
   <insert_a_suppression_name_here>
   Memcheck:Leak
   match-leak-kinds: reachable
   fun:calloc
   fun:_ZN4objc8DenseMapIP10objc_classS2_NS_17DenseMapValueInfoIS2_EENS_12DenseMapInfoIS2_EENS_6detail12DenseMapPairIS2_S2_EEE4growEj
   fun:_ZL16addRemappedClassP10objc_classS0_
   fun:objc_initializeClassPair
   fun:_NSToDoAtProcessStart
   fun:_NSInitializePlatform
   fun:objc_msgLookup_fpret
   fun:_ZN4dyldL12notifySingleE17dyld_image_statesPK11ImageLoaderPNS1_21InitializerTimingListE
   fun:_ZN11ImageLoader23recursiveInitializationERKNS_11LinkContextEjPKcRNS_21InitializerTimingListERNS_15UninitedUpwardsE
   fun:_ZN11ImageLoader23recursiveInitializationERKNS_11LinkContextEjPKcRNS_21InitializerTimingListERNS_15UninitedUpwardsE
   fun:_ZN11ImageLoader23recursiveInitializationERKNS_11LinkContextEjPKcRNS_21InitializerTimingListERNS_15UninitedUpwardsE
   fun:_ZN11ImageLoader23recursiveInitializationERKNS_11LinkContextEjPKcRNS_21InitializerTimingListERNS_15UninitedUpwardsE
}
{
   <insert_a_suppression_name_here>
   Memcheck:Leak
   match-leak-kinds: reachable
   fun:calloc
   fun:_ZN4objc8DenseMapIP10objc_classS2_NS_17DenseMapValueInfoIS2_EENS_12DenseMapInfoIS2_EENS_6detail12DenseMapPairIS2_S2_EEE4growEj
   fun:_ZN10objc_class11mangledNameEv
   fun:_ZL16addRemappedClassP10objc_classS0_
   fun:objc_initializeClassPair
   fun:_NSToDoAtProcessStart
   fun:_NSInitializePlatform
   fun:objc_msgLookup_fpret
   fun:_ZN4dyldL12notifySingleE17dyld_image_statesPK11ImageLoaderPNS1_21InitializerTimingListE
   fun:_ZN11ImageLoader23recursiveInitializationERKNS_11LinkContextEjPKcRNS_21InitializerTimingListERNS_15UninitedUpwardsE
   fun:_ZN11ImageLoader23recursiveInitializationERKNS_11LinkContextEjPKcRNS_21InitializerTimingListERNS_15UninitedUpwardsE
   fun:_ZN11ImageLoader23recursiveInitializationERKNS_11LinkContextEjPKcRNS_21InitializerTimingListERNS_15UninitedUpwardsE
}
{
   <insert_a_suppression_name_here>
   Memcheck:Leak
   match-leak-kinds: reachable
   fun:calloc
   fun:_ZN4objc8DenseMapIP10objc_classS2_NS_17DenseMapValueInfoIS2_EENS_12DenseMapInfoIS2_EENS_6detail12DenseMapPairIS2_S2_EEE4growEj
   fun:_ZL16addRemappedClassP10objc_classS0_
   fun:objc_initializeClassPair
   fun:_NSToDoAtProcessStart
   fun:_NSInitializePlatform
   fun:objc_msgLookup_fpret
   fun:_ZN4dyldL12notifySingleE17dyld_image_statesPK11ImageLoaderPNS1_21InitializerTimingListE
   fun:_ZN11ImageLoader23recursiveInitializationERKNS_11LinkContextEjPKcRNS_21InitializerTimingListERNS_15UninitedUpwardsE
   fun:_ZN11ImageLoader23recursiveInitializationERKNS_11LinkContextEjPKcRNS_21InitializerTimingListERNS_15UninitedUpwardsE
   fun:_ZN11ImageLoader23recursiveInitializationERKNS_11LinkContextEjPKcRNS_21InitializerTimingListERNS_15UninitedUpwardsE
   fun:_ZN11ImageLoader23recursiveInitializationERKNS_11LinkContextEjPKcRNS_21InitializerTimingListERNS_15UninitedUpwardsE
}
{
   <insert_a_suppression_name_here>
   Memcheck:Leak
   match-leak-kinds: reachable
   fun:calloc
   fun:_ZN4objc8DenseMapIP10objc_classS2_NS_17DenseMapValueInfoIS2_EENS_12DenseMapInfoIS2_EENS_6detail12DenseMapPairIS2_S2_EEE4growEj
   fun:_ZN10objc_class11mangledNameEv
   fun:_ZL16addRemappedClassP10objc_classS0_
   fun:objc_initializeClassPair
   fun:_NSToDoAtProcessStart
   fun:_NSInitializePlatform
   fun:objc_msgLookup_fpret
   fun:_ZN4dyldL12notifySingleE17dyld_image_statesPK11ImageLoaderPNS1_21InitializerTimingListE
   fun:_ZN11ImageLoader23recursiveInitializationERKNS_11LinkContextEjPKcRNS_21InitializerTimingListERNS_15UninitedUpwardsE
   fun:_ZN11ImageLoader23recursiveInitializationERKNS_11LinkContextEjPKcRNS_21InitializerTimingListERNS_15UninitedUpwardsE
   fun:_ZN11ImageLoader23recursiveInitializationERKNS_11LinkContextEjPKcRNS_21InitializerTimingListERNS_15UninitedUpwardsE
}
{
   <insert_a_suppression_name_here>
   Memcheck:Leak
   match-leak-kinds: reachable
   fun:calloc
   fun:_ZN4objc8DenseMapIP10objc_classS2_NS_17DenseMapValueInfoIS2_EENS_12DenseMapInfoIS2_EENS_6detail12DenseMapPairIS2_S2_EEE4growEj
   fun:_ZL16addRemappedClassP10objc_classS0_
   fun:objc_initializeClassPair
   fun:_NSToDoAtProcessStart
   fun:_NSInitializePlatform
   fun:objc_msgLookup_fpret
   fun:_ZN4dyldL12notifySingleE17dyld_image_statesPK11ImageLoaderPNS1_21InitializerTimingListE
   fun:_ZN11ImageLoader23recursiveInitializationERKNS_11LinkContextEjPKcRNS_21InitializerTimingListERNS_15UninitedUpwardsE
   fun:_ZN11ImageLoader23recursiveInitializationERKNS_11LinkContextEjPKcRNS_21InitializerTimingListERNS_15UninitedUpwardsE
   fun:_ZN11ImageLoader23recursiveInitializationERKNS_11LinkContextEjPKcRNS_21InitializerTimingListERNS_15UninitedUpwardsE
   fun:_ZN11ImageLoader23recursiveInitializationERKNS_11LinkContextEjPKcRNS_21InitializerTimingListERNS_15UninitedUpwardsE
}
{
   <insert_a_suppression_name_here>
   Memcheck:Leak
   match-leak-kinds: reachable
   fun:calloc
   fun:_ZN4objc8DenseMapIP10objc_classS2_NS_17DenseMapValueInfoIS2_EENS_12DenseMapInfoIS2_EENS_6detail12DenseMapPairIS2_S2_EEE4growEj
   fun:_ZN10objc_class11mangledNameEv
   fun:_ZL16addRemappedClassP10objc_classS0_
   fun:objc_initializeClassPair
   fun:_NSToDoAtProcessStart
   fun:_NSInitializePlatform
   fun:objc_msgLookup_fpret
   fun:_ZN4dyldL12notifySingleE17dyld_image_statesPK11ImageLoaderPNS1_21InitializerTimingListE
   fun:_ZN11ImageLoader23recursiveInitializationERKNS_11LinkContextEjPKcRNS_21InitializerTimingListERNS_15UninitedUpwardsE
   fun:_ZN11ImageLoader23recursiveInitializationERKNS_11LinkContextEjPKcRNS_21InitializerTimingListERNS_15UninitedUpwardsE
   fun:_ZN11ImageLoader23recursiveInitializationERKNS_11LinkContextEjPKcRNS_21InitializerTimingListERNS_15UninitedUpwardsE
}
{
   <insert_a_suppression_name_here>
   Memcheck:Leak
   match-leak-kinds: reachable
   fun:calloc
   fun:_ZN4objc8DenseMapIP10objc_classS2_NS_17DenseMapValueInfoIS2_EENS_12DenseMapInfoIS2_EENS_6detail12DenseMapPairIS2_S2_EEE4growEj
   fun:_ZL16addRemappedClassP10objc_classS0_
   fun:objc_initializeClassPair
   fun:_NSToDoAtProcessStart
   fun:_NSInitializePlatform
   fun:objc_msgLookup_fpret
   fun:_ZN4dyldL12notifySingleE17dyld_image_statesPK11ImageLoaderPNS1_21InitializerTimingListE
   fun:_ZN11ImageLoader23recursiveInitializationERKNS_11LinkContextEjPKcRNS_21InitializerTimingListERNS_15UninitedUpwardsE
   fun:_ZN11ImageLoader23recursiveInitializationERKNS_11LinkContextEjPKcRNS_21InitializerTimingListERNS_15UninitedUpwardsE
   fun:_ZN11ImageLoader23recursiveInitializationERKNS_11LinkContextEjPKcRNS_21InitializerTimingListERNS_15UninitedUpwardsE
   fun:_ZN11ImageLoader23recursiveInitializationERKNS_11LinkContextEjPKcRNS_21InitializerTimingListERNS_15UninitedUpwardsE
}
{
   <insert_a_suppression_name_here>
   Memcheck:Leak
   match-leak-kinds: reachable
   fun:calloc
   fun:_ZN4objc8DenseMapIP10objc_classS2_NS_17DenseMapValueInfoIS2_EENS_12DenseMapInfoIS2_EENS_6detail12DenseMapPairIS2_S2_EEE4growEj
   fun:_ZN10objc_class11mangledNameEv
   fun:_ZL16addRemappedClassP10objc_classS0_
   fun:objc_initializeClassPair
   fun:_NSToDoAtProcessStart
   fun:_NSInitializePlatform
   fun:objc_msgLookup_fpret
   fun:_ZN4dyldL12notifySingleE17dyld_image_statesPK11ImageLoaderPNS1_21InitializerTimingListE
   fun:_ZN11ImageLoader23recursiveInitializationERKNS_11LinkContextEjPKcRNS_21InitializerTimingListERNS_15UninitedUpwardsE
   fun:_ZN11ImageLoader23recursiveInitializationERKNS_11LinkContextEjPKcRNS_21InitializerTimingListERNS_15UninitedUpwardsE
   fun:_ZN11ImageLoader23recursiveInitializationERKNS_11LinkContextEjPKcRNS_21InitializerTimingListERNS_15UninitedUpwardsE
}
{
   <insert_a_suppression_name_here>
   Memcheck:Leak
   match-leak-kinds: reachable
   fun:calloc
   fun:_ZN4objc8DenseMapIP10objc_classS2_NS_17DenseMapValueInfoIS2_EENS_12DenseMapInfoIS2_EENS_6detail12DenseMapPairIS2_S2_EEE4growEj
   fun:_ZL16addRemappedClassP10objc_classS0_
   fun:objc_initializeClassPair
   fun:_NSToDoAtProcessStart
   fun:_NSInitializePlatform
   fun:objc_msgLookup_fpret
   fun:_ZN4dyldL12notifySingleE17dyld_image_statesPK11ImageLoaderPNS1_21InitializerTimingListE
   fun:_ZN11ImageLoader23recursiveInitializationERKNS_11LinkContextEjPKcRNS_21InitializerTimingListERNS_15UninitedUpwardsE
   fun:_ZN11ImageLoader23recursiveInitializationERKNS_11LinkContextEjPKcRNS_21InitializerTimingListERNS_15UninitedUpwardsE
   fun:_ZN11ImageLoader23recursiveInitializationERKNS_11LinkContextEjPKcRNS_21InitializerTimingListERNS_15UninitedUpwardsE
   fun:_ZN11ImageLoader23recursiveInitializationERKNS_11LinkContextEjPKcRNS_21InitializerTimingListERNS_15UninitedUpwardsE
}
{
   <insert_a_suppression_name_here>
   Memcheck:Leak
   match-leak-kinds: reachable
   fun:calloc
   fun:_ZN4objc8DenseMapIP10objc_classS2_NS_17DenseMapValueInfoIS2_EENS_12DenseMapInfoIS2_EENS_6detail12DenseMapPairIS2_S2_EEE4growEj
   fun:_ZN10objc_class11mangledNameEv
   fun:_ZL16addRemappedClassP10objc_classS0_
   fun:objc_initializeClassPair
   fun:_NSToDoAtProcessStart
   fun:_NSInitializePlatform
   fun:objc_msgLookup_fpret
   fun:_ZN4dyldL12notifySingleE17dyld_image_statesPK11ImageLoaderPNS1_21InitializerTimingListE
   fun:_ZN11ImageLoader23recursiveInitializationERKNS_11LinkContextEjPKcRNS_21InitializerTimingListERNS_15UninitedUpwardsE
   fun:_ZN11ImageLoader23recursiveInitializationERKNS_11LinkContextEjPKcRNS_21InitializerTimingListERNS_15UninitedUpwardsE
   fun:_ZN11ImageLoader23recursiveInitializationERKNS_11LinkContextEjPKcRNS_21InitializerTimingListERNS_15UninitedUpwardsE
}
{
   <insert_a_suppression_name_here>
   Memcheck:Leak
   match-leak-kinds: reachable
   fun:calloc
   fun:_ZN4objc8DenseMapIP10objc_classS2_NS_17DenseMapValueInfoIS2_EENS_12DenseMapInfoIS2_EENS_6detail12DenseMapPairIS2_S2_EEE4growEj
   fun:_ZL16addRemappedClassP10objc_classS0_
   fun:objc_initializeClassPair
   fun:_NSToDoAtProcessStart
   fun:_NSInitializePlatform
   fun:objc_msgLookup_fpret
   fun:_ZN4dyldL12notifySingleE17dyld_image_statesPK11ImageLoaderPNS1_21InitializerTimingListE
   fun:_ZN11ImageLoader23recursiveInitializationERKNS_11LinkContextEjPKcRNS_21InitializerTimingListERNS_15UninitedUpwardsE
   fun:_ZN11ImageLoader23recursiveInitializationERKNS_11LinkContextEjPKcRNS_21InitializerTimingListERNS_15UninitedUpwardsE
   fun:_ZN11ImageLoader23recursiveInitializationERKNS_11LinkContextEjPKcRNS_21InitializerTimingListERNS_15UninitedUpwardsE
   fun:_ZN11ImageLoader23recursiveInitializationERKNS_11LinkContextEjPKcRNS_21InitializerTimingListERNS_15UninitedUpwardsE
}
{
   <insert_a_suppression_name_here>
   Memcheck:Leak
   match-leak-kinds: reachable
   fun:calloc
   fun:_ZN4objc8DenseMapIP10objc_classS2_NS_17DenseMapValueInfoIS2_EENS_12DenseMapInfoIS2_EENS_6detail12DenseMapPairIS2_S2_EEE4growEj
   fun:_ZN10objc_class11mangledNameEv
   fun:_ZL16addRemappedClassP10objc_classS0_
   fun:objc_initializeClassPair
   fun:_NSToDoAtProcessStart
   fun:_NSInitializePlatform
   fun:objc_msgLookup_fpret
   fun:_ZN4dyldL12notifySingleE17dyld_image_statesPK11ImageLoaderPNS1_21InitializerTimingListE
   fun:_ZN11ImageLoader23recursiveInitializationERKNS_11LinkContextEjPKcRNS_21InitializerTimingListERNS_15UninitedUpwardsE
   fun:_ZN11ImageLoader23recursiveInitializationERKNS_11LinkContextEjPKcRNS_21InitializerTimingListERNS_15UninitedUpwardsE
   fun:_ZN11ImageLoader23recursiveInitializationERKNS_11LinkContextEjPKcRNS_21InitializerTimingListERNS_15UninitedUpwardsE
}
{
   <insert_a_suppression_name_here>
   Memcheck:Leak
   match-leak-kinds: reachable
   fun:calloc
   fun:_ZN4objc8DenseMapIP10objc_classS2_NS_17DenseMapValueInfoIS2_EENS_12DenseMapInfoIS2_EENS_6detail12DenseMapPairIS2_S2_EEE4growEj
   fun:_ZL16addRemappedClassP10objc_classS0_
   fun:objc_initializeClassPair
   fun:_NSToDoAtProcessStart
   fun:_NSInitializePlatform
   fun:objc_msgLookup_fpret
   fun:_ZN4dyldL12notifySingleE17dyld_image_statesPK11ImageLoaderPNS1_21InitializerTimingListE
   fun:_ZN11ImageLoader23recursiveInitializationERKNS_11LinkContextEjPKcRNS_21InitializerTimingListERNS_15UninitedUpwardsE
   fun:_ZN11ImageLoader23recursiveInitializationERKNS_11LinkContextEjPKcRNS_21InitializerTimingListERNS_15UninitedUpwardsE
   fun:_ZN11ImageLoader23recursiveInitializationERKNS_11LinkContextEjPKcRNS_21InitializerTimingListERNS_15UninitedUpwardsE
   fun:_ZN11ImageLoader23recursiveInitializationERKNS_11LinkContextEjPKcRNS_21InitializerTimingListERNS_15UninitedUpwardsE
}
{
   <insert_a_suppression_name_here>
   Memcheck:Leak
   match-leak-kinds: reachable
   fun:calloc
   fun:_ZN4objc8DenseMapIP10objc_classS2_NS_17DenseMapValueInfoIS2_EENS_12DenseMapInfoIS2_EENS_6detail12DenseMapPairIS2_S2_EEE4growEj
   fun:_ZN10objc_class11mangledNameEv
   fun:_ZL16addRemappedClassP10objc_classS0_
   fun:objc_initializeClassPair
   fun:_NSToDoAtProcessStart
   fun:_NSInitializePlatform
   fun:objc_msgLookup_fpret
   fun:_ZN4dyldL12notifySingleE17dyld_image_statesPK11ImageLoaderPNS1_21InitializerTimingListE
   fun:_ZN11ImageLoader23recursiveInitializationERKNS_11LinkContextEjPKcRNS_21InitializerTimingListERNS_15UninitedUpwardsE
   fun:_ZN11ImageLoader23recursiveInitializationERKNS_11LinkContextEjPKcRNS_21InitializerTimingListERNS_15UninitedUpwardsE
   fun:_ZN11ImageLoader23recursiveInitializationERKNS_11LinkContextEjPKcRNS_21InitializerTimingListERNS_15UninitedUpwardsE
}
{
   <insert_a_suppression_name_here>
   Memcheck:Leak
   match-leak-kinds: reachable
   fun:calloc
   fun:_ZN4objc8DenseMapIP10objc_classS2_NS_17DenseMapValueInfoIS2_EENS_12DenseMapInfoIS2_EENS_6detail12DenseMapPairIS2_S2_EEE4growEj
   fun:_ZL16addRemappedClassP10objc_classS0_
   fun:objc_initializeClassPair
   fun:_NSToDoAtProcessStart
   fun:_NSInitializePlatform
   fun:objc_msgLookup_fpret
   fun:_ZN4dyldL12notifySingleE17dyld_image_statesPK11ImageLoaderPNS1_21InitializerTimingListE
   fun:_ZN11ImageLoader23recursiveInitializationERKNS_11LinkContextEjPKcRNS_21InitializerTimingListERNS_15UninitedUpwardsE
   fun:_ZN11ImageLoader23recursiveInitializationERKNS_11LinkContextEjPKcRNS_21InitializerTimingListERNS_15UninitedUpwardsE
   fun:_ZN11ImageLoader23recursiveInitializationERKNS_11LinkContextEjPKcRNS_21InitializerTimingListERNS_15UninitedUpwardsE
   fun:_ZN11ImageLoader23recursiveInitializationERKNS_11LinkContextEjPKcRNS_21InitializerTimingListERNS_15UninitedUpwardsE
}
{
   <insert_a_suppression_name_here>
   Memcheck:Leak
   match-leak-kinds: reachable
   fun:calloc
   fun:_ZN4objc8DenseMapIP10objc_classS2_NS_17DenseMapValueInfoIS2_EENS_12DenseMapInfoIS2_EENS_6detail12DenseMapPairIS2_S2_EEE4growEj
   fun:_ZN10objc_class11mangledNameEv
   fun:_ZL16addRemappedClassP10objc_classS0_
   fun:objc_initializeClassPair
   fun:_NSToDoAtProcessStart
   fun:_NSInitializePlatform
   fun:objc_msgLookup_fpret
   fun:_ZN4dyldL12notifySingleE17dyld_image_statesPK11ImageLoaderPNS1_21InitializerTimingListE
   fun:_ZN11ImageLoader23recursiveInitializationERKNS_11LinkContextEjPKcRNS_21InitializerTimingListERNS_15UninitedUpwardsE
   fun:_ZN11ImageLoader23recursiveInitializationERKNS_11LinkContextEjPKcRNS_21InitializerTimingListERNS_15UninitedUpwardsE
   fun:_ZN11ImageLoader23recursiveInitializationERKNS_11LinkContextEjPKcRNS_21InitializerTimingListERNS_15UninitedUpwardsE
}
{
   <insert_a_suppression_name_here>
   Memcheck:Leak
   match-leak-kinds: reachable
   fun:calloc
   fun:_ZN4objc8DenseMapIP10objc_classS2_NS_17DenseMapValueInfoIS2_EENS_12DenseMapInfoIS2_EENS_6detail12DenseMapPairIS2_S2_EEE4growEj
   fun:_ZL16addRemappedClassP10objc_classS0_
   fun:objc_initializeClassPair
   fun:_NSToDoAtProcessStart
   fun:_NSInitializePlatform
   fun:objc_msgLookup_fpret
   fun:_ZN4dyldL12notifySingleE17dyld_image_statesPK11ImageLoaderPNS1_21InitializerTimingListE
   fun:_ZN11ImageLoader23recursiveInitializationERKNS_11LinkContextEjPKcRNS_21InitializerTimingListERNS_15UninitedUpwardsE
   fun:_ZN11ImageLoader23recursiveInitializationERKNS_11LinkContextEjPKcRNS_21InitializerTimingListERNS_15UninitedUpwardsE
   fun:_ZN11ImageLoader23recursiveInitializationERKNS_11LinkContextEjPKcRNS_21InitializerTimingListERNS_15UninitedUpwardsE
   fun:_ZN11ImageLoader23recursiveInitializationERKNS_11LinkContextEjPKcRNS_21InitializerTimingListERNS_15UninitedUpwardsE
}
{
   <insert_a_suppression_name_here>
   Memcheck:Leak
   match-leak-kinds: reachable
   fun:calloc
   fun:_ZN4objc8DenseMapIP10objc_classS2_NS_17DenseMapValueInfoIS2_EENS_12DenseMapInfoIS2_EENS_6detail12DenseMapPairIS2_S2_EEE4growEj
   fun:_ZN10objc_class11mangledNameEv
   fun:_ZL16addRemappedClassP10objc_classS0_
   fun:objc_initializeClassPair
   fun:_NSToDoAtProcessStart
   fun:_NSInitializePlatform
   fun:objc_msgLookup_fpret
   fun:_ZN4dyldL12notifySingleE17dyld_image_statesPK11ImageLoaderPNS1_21InitializerTimingListE
   fun:_ZN11ImageLoader23recursiveInitializationERKNS_11LinkContextEjPKcRNS_21InitializerTimingListERNS_15UninitedUpwardsE
   fun:_ZN11ImageLoader23recursiveInitializationERKNS_11LinkContextEjPKcRNS_21InitializerTimingListERNS_15UninitedUpwardsE
   fun:_ZN11ImageLoader23recursiveInitializationERKNS_11LinkContextEjPKcRNS_21InitializerTimingListERNS_15UninitedUpwardsE
}
{
   <insert_a_suppression_name_here>
   Memcheck:Leak
   match-leak-kinds: reachable
   fun:calloc
   fun:_ZN4objc8DenseMapIP10objc_classS2_NS_17DenseMapValueInfoIS2_EENS_12DenseMapInfoIS2_EENS_6detail12DenseMapPairIS2_S2_EEE4growEj
   fun:_ZL16addRemappedClassP10objc_classS0_
   fun:objc_initializeClassPair
   fun:_NSToDoAtProcessStart
   fun:_NSInitializePlatform
   fun:objc_msgLookup_fpret
   fun:_ZN4dyldL12notifySingleE17dyld_image_statesPK11ImageLoaderPNS1_21InitializerTimingListE
   fun:_ZN11ImageLoader23recursiveInitializationERKNS_11LinkContextEjPKcRNS_21InitializerTimingListERNS_15UninitedUpwardsE
   fun:_ZN11ImageLoader23recursiveInitializationERKNS_11LinkContextEjPKcRNS_21InitializerTimingListERNS_15UninitedUpwardsE
   fun:_ZN11ImageLoader23recursiveInitializationERKNS_11LinkContextEjPKcRNS_21InitializerTimingListERNS_15UninitedUpwardsE
   fun:_ZN11ImageLoader23recursiveInitializationERKNS_11LinkContextEjPKcRNS_21InitializerTimingListERNS_15UninitedUpwardsE
}
{
   <insert_a_suppression_name_here>
   Memcheck:Leak
   match-leak-kinds: reachable
   fun:calloc
   fun:_ZN4objc8DenseMapIP10objc_classS2_NS_17DenseMapValueInfoIS2_EENS_12DenseMapInfoIS2_EENS_6detail12DenseMapPairIS2_S2_EEE4growEj
   fun:_ZN10objc_class11mangledNameEv
   fun:_ZL16addRemappedClassP10objc_classS0_
   fun:objc_initializeClassPair
   fun:_NSToDoAtProcessStart
   fun:_NSInitializePlatform
   fun:objc_msgLookup_fpret
   fun:_ZN4dyldL12notifySingleE17dyld_image_statesPK11ImageLoaderPNS1_21InitializerTimingListE
   fun:_ZN11ImageLoader23recursiveInitializationERKNS_11LinkContextEjPKcRNS_21InitializerTimingListERNS_15UninitedUpwardsE
   fun:_ZN11ImageLoader23recursiveInitializationERKNS_11LinkContextEjPKcRNS_21InitializerTimingListERNS_15UninitedUpwardsE
   fun:_ZN11ImageLoader23recursiveInitializationERKNS_11LinkContextEjPKcRNS_21InitializerTimingListERNS_15UninitedUpwardsE
}
{
   <insert_a_suppression_name_here>
   Memcheck:Leak
   match-leak-kinds: reachable
   fun:calloc
   fun:_ZN4objc8DenseMapIP10objc_classS2_NS_17DenseMapValueInfoIS2_EENS_12DenseMapInfoIS2_EENS_6detail12DenseMapPairIS2_S2_EEE4growEj
   fun:_ZL16addRemappedClassP10objc_classS0_
   fun:objc_initializeClassPair
   fun:_NSToDoAtProcessStart
   fun:_NSInitializePlatform
   fun:objc_msgLookup_fpret
   fun:_ZN4dyldL12notifySingleE17dyld_image_statesPK11ImageLoaderPNS1_21InitializerTimingListE
   fun:_ZN11ImageLoader23recursiveInitializationERKNS_11LinkContextEjPKcRNS_21InitializerTimingListERNS_15UninitedUpwardsE
   fun:_ZN11ImageLoader23recursiveInitializationERKNS_11LinkContextEjPKcRNS_21InitializerTimingListERNS_15UninitedUpwardsE
   fun:_ZN11ImageLoader23recursiveInitializationERKNS_11LinkContextEjPKcRNS_21InitializerTimingListERNS_15UninitedUpwardsE
   fun:_ZN11ImageLoader23recursiveInitializationERKNS_11LinkContextEjPKcRNS_21InitializerTimingListERNS_15UninitedUpwardsE
}
{
   <insert_a_suppression_name_here>
   Memcheck:Leak
   match-leak-kinds: reachable
   fun:calloc
   fun:_ZN4objc8DenseMapIP10objc_classS2_NS_17DenseMapValueInfoIS2_EENS_12DenseMapInfoIS2_EENS_6detail12DenseMapPairIS2_S2_EEE4growEj
   fun:_ZN10objc_class11mangledNameEv
   fun:_ZL16addRemappedClassP10objc_classS0_
   fun:objc_initializeClassPair
   fun:_NSToDoAtProcessStart
   fun:_NSInitializePlatform
   fun:objc_msgLookup_fpret
   fun:_ZN4dyldL12notifySingleE17dyld_image_statesPK11ImageLoaderPNS1_21InitializerTimingListE
   fun:_ZN11ImageLoader23recursiveInitializationERKNS_11LinkContextEjPKcRNS_21InitializerTimingListERNS_15UninitedUpwardsE
   fun:_ZN11ImageLoader23recursiveInitializationERKNS_11LinkContextEjPKcRNS_21InitializerTimingListERNS_15UninitedUpwardsE
   fun:_ZN11ImageLoader23recursiveInitializationERKNS_11LinkContextEjPKcRNS_21InitializerTimingListERNS_15UninitedUpwardsE
}
{
   <insert_a_suppression_name_here>
   Memcheck:Leak
   match-leak-kinds: reachable
   fun:calloc
   fun:_ZN4objc8DenseMapIP10objc_classS2_NS_17DenseMapValueInfoIS2_EENS_12DenseMapInfoIS2_EENS_6detail12DenseMapPairIS2_S2_EEE4growEj
   fun:_ZN10objc_class11mangledNameEv
   fun:_ZN10objc_class11mangledNameEv
   fun:_ZL16addRemappedClassP10objc_classS0_
   fun:objc_initializeClassPair
   fun:_NSToDoAtProcessStart
   fun:_NSInitializePlatform
   fun:objc_msgLookup_fpret
   fun:_ZN4dyldL12notifySingleE17dyld_image_statesPK11ImageLoaderPNS1_21InitializerTimingListE
   fun:_ZN11ImageLoader23recursiveInitializationERKNS_11LinkContextEjPKcRNS_21InitializerTimingListERNS_15UninitedUpwardsE
   fun:_ZN11ImageLoader23recursiveInitializationERKNS_11LinkContextEjPKcRNS_21InitializerTimingListERNS_15UninitedUpwardsE
}
{
   <insert_a_suppression_name_here>
   Memcheck:Leak
   match-leak-kinds: reachable
   fun:calloc
   fun:_ZN4objc8DenseMapIP10objc_classS2_NS_17DenseMapValueInfoIS2_EENS_12DenseMapInfoIS2_EENS_6detail12DenseMapPairIS2_S2_EEE4growEj
   fun:_ZN10objc_class11mangledNameEv
   fun:_ZL16addRemappedClassP10objc_classS0_
   fun:objc_initializeClassPair
   fun:_NSToDoAtProcessStart
   fun:_NSInitializePlatform
   fun:objc_msgLookup_fpret
   fun:_ZN4dyldL12notifySingleE17dyld_image_statesPK11ImageLoaderPNS1_21InitializerTimingListE
   fun:_ZN11ImageLoader23recursiveInitializationERKNS_11LinkContextEjPKcRNS_21InitializerTimingListERNS_15UninitedUpwardsE
   fun:_ZN11ImageLoader23recursiveInitializationERKNS_11LinkContextEjPKcRNS_21InitializerTimingListERNS_15UninitedUpwardsE
   fun:_ZN11ImageLoader23recursiveInitializationERKNS_11LinkContextEjPKcRNS_21InitializerTimingListERNS_15UninitedUpwardsE
}
{
   <insert_a_suppression_name_here>
   Memcheck:Leak
   match-leak-kinds: reachable
   fun:calloc
   fun:_ZN4objc8DenseMapIP10objc_classS2_NS_17DenseMapValueInfoIS2_EENS_12DenseMapInfoIS2_EENS_6detail12DenseMapPairIS2_S2_EEE4growEj
   fun:_ZL16addRemappedClassP10objc_classS0_
   fun:objc_initializeClassPair
   fun:_NSToDoAtProcessStart
   fun:_NSInitializePlatform
   fun:objc_msgLookup_fpret
   fun:_ZN4dyldL12notifySingleE17dyld_image_statesPK11ImageLoaderPNS1_21InitializerTimingListE
   fun:_ZN11ImageLoader23recursiveInitializationERKNS_11LinkContextEjPKcRNS_21InitializerTimingListERNS_15UninitedUpwardsE
   fun:_ZN11ImageLoader23recursiveInitializationERKNS_11LinkContextEjPKcRNS_21InitializerTimingListERNS_15UninitedUpwardsE
   fun:_ZN11ImageLoader23recursiveInitializationERKNS_11LinkContextEjPKcRNS_21InitializerTimingListERNS_15UninitedUpwardsE
   fun:_ZN11ImageLoader23recursiveInitializationERKNS_11LinkContextEjPKcRNS_21InitializerTimingListERNS_15UninitedUpwardsE
}
{
   <insert_a_suppression_name_here>
   Memcheck:Leak
   match-leak-kinds: reachable
   fun:calloc
   fun:_ZN4objc8DenseMapIP10objc_classS2_NS_17DenseMapValueInfoIS2_EENS_12DenseMapInfoIS2_EENS_6detail12DenseMapPairIS2_S2_EEE4growEj
   fun:_ZN10objc_class11mangledNameEv
   fun:_ZL16addRemappedClassP10objc_classS0_
   fun:objc_initializeClassPair
   fun:_NSToDoAtProcessStart
   fun:_NSInitializePlatform
   fun:objc_msgLookup_fpret
   fun:_ZN4dyldL12notifySingleE17dyld_image_statesPK11ImageLoaderPNS1_21InitializerTimingListE
   fun:_ZN11ImageLoader23recursiveInitializationERKNS_11LinkContextEjPKcRNS_21InitializerTimingListERNS_15UninitedUpwardsE
   fun:_ZN11ImageLoader23recursiveInitializationERKNS_11LinkContextEjPKcRNS_21InitializerTimingListERNS_15UninitedUpwardsE
   fun:_ZN11ImageLoader23recursiveInitializationERKNS_11LinkContextEjPKcRNS_21InitializerTimingListERNS_15UninitedUpwardsE
}
{
   <insert_a_suppression_name_here>
   Memcheck:Leak
   match-leak-kinds: reachable
   fun:calloc
   fun:_ZN4objc8DenseMapIP10objc_classS2_NS_17DenseMapValueInfoIS2_EENS_12DenseMapInfoIS2_EENS_6detail12DenseMapPairIS2_S2_EEE4growEj
   fun:_ZL16addRemappedClassP10objc_classS0_
   fun:objc_initializeClassPair
   fun:_NSToDoAtProcessStart
   fun:_NSInitializePlatform
   fun:objc_msgLookup_fpret
   fun:_ZN4dyldL12notifySingleE17dyld_image_statesPK11ImageLoaderPNS1_21InitializerTimingListE
   fun:_ZN11ImageLoader23recursiveInitializationERKNS_11LinkContextEjPKcRNS_21InitializerTimingListERNS_15UninitedUpwardsE
   fun:_ZN11ImageLoader23recursiveInitializationERKNS_11LinkContextEjPKcRNS_21InitializerTimingListERNS_15UninitedUpwardsE
   fun:_ZN11ImageLoader23recursiveInitializationERKNS_11LinkContextEjPKcRNS_21InitializerTimingListERNS_15UninitedUpwardsE
   fun:_ZN11ImageLoader23recursiveInitializationERKNS_11LinkContextEjPKcRNS_21InitializerTimingListERNS_15UninitedUpwardsE
}
{
   <insert_a_suppression_name_here>
   Memcheck:Leak
   match-leak-kinds: reachable
   fun:calloc
   fun:_ZN4objc8DenseMapIP10objc_classS2_NS_17DenseMapValueInfoIS2_EENS_12DenseMapInfoIS2_EENS_6detail12DenseMapPairIS2_S2_EEE4growEj
   fun:_ZN10objc_class11mangledNameEv
   fun:_ZL16addRemappedClassP10objc_classS0_
   fun:objc_initializeClassPair
   fun:_NSToDoAtProcessStart
   fun:_NSInitializePlatform
   fun:objc_msgLookup_fpret
   fun:_ZN4dyldL12notifySingleE17dyld_image_statesPK11ImageLoaderPNS1_21InitializerTimingListE
   fun:_ZN11ImageLoader23recursiveInitializationERKNS_11LinkContextEjPKcRNS_21InitializerTimingListERNS_15UninitedUpwardsE
   fun:_ZN11ImageLoader23recursiveInitializationERKNS_11LinkContextEjPKcRNS_21InitializerTimingListERNS_15UninitedUpwardsE
   fun:_ZN11ImageLoader23recursiveInitializationERKNS_11LinkContextEjPKcRNS_21InitializerTimingListERNS_15UninitedUpwardsE
}
{
   <insert_a_suppression_name_here>
   Memcheck:Leak
   match-leak-kinds: reachable
   fun:calloc
   fun:objc_msgSend_stret
   fun:__CFGetConverter
   fun:CFBasicHashSetValue
   fun:-[NSThread init]
   fun:____NSThreads_block_invoke
   fun:_dispatch_client_callout
   fun:_dispatch_once_callout
   fun:_NSThreadGet0
   fun:_NSInitializePlatform
   fun:objc_msgLookup_fpret
   fun:_ZN4dyldL12notifySingleE17dyld_image_statesPK11ImageLoaderPNS1_21InitializerTimingListE
}
{
   <insert_a_suppression_name_here>
   Memcheck:Leak
   match-leak-kinds: reachable
   fun:calloc
   fun:_ZN4objc8DenseMapIP10objc_classS2_NS_17DenseMapValueInfoIS2_EENS_12DenseMapInfoIS2_EENS_6detail12DenseMapPairIS2_S2_EEE4growEj
   fun:_ZL16addRemappedClassP10objc_classS0_
   fun:objc_initializeClassPair
   fun:___NSSetupDispatchDataBridge_block_invoke
   fun:_dispatch_client_callout
   fun:_dispatch_once_callout
   fun:_NSSetupDispatchDataBridge
   fun:objc_msgLookup_fpret
   fun:_ZN4dyldL12notifySingleE17dyld_image_statesPK11ImageLoaderPNS1_21InitializerTimingListE
   fun:_ZN11ImageLoader23recursiveInitializationERKNS_11LinkContextEjPKcRNS_21InitializerTimingListERNS_15UninitedUpwardsE
   fun:_ZN11ImageLoader23recursiveInitializationERKNS_11LinkContextEjPKcRNS_21InitializerTimingListERNS_15UninitedUpwardsE
}
{
   <insert_a_suppression_name_here>
   Memcheck:Leak
   match-leak-kinds: reachable
   fun:calloc
   fun:_ZN4objc8DenseMapIP10objc_classS2_NS_17DenseMapValueInfoIS2_EENS_12DenseMapInfoIS2_EENS_6detail12DenseMapPairIS2_S2_EEE4growEj
   fun:_ZN10objc_class11mangledNameEv
   fun:_ZL16addRemappedClassP10objc_classS0_
   fun:objc_initializeClassPair
   fun:___NSSetupDispatchDataBridge_block_invoke
   fun:_dispatch_client_callout
   fun:_dispatch_once_callout
   fun:_NSSetupDispatchDataBridge
   fun:objc_msgLookup_fpret
   fun:_ZN4dyldL12notifySingleE17dyld_image_statesPK11ImageLoaderPNS1_21InitializerTimingListE
   fun:_ZN11ImageLoader23recursiveInitializationERKNS_11LinkContextEjPKcRNS_21InitializerTimingListERNS_15UninitedUpwardsE
}
{
   <insert_a_suppression_name_here>
   Memcheck:Leak
   match-leak-kinds: reachable
   fun:calloc
   fun:_ZN4objc8DenseMapIP10objc_classS2_NS_17DenseMapValueInfoIS2_EENS_12DenseMapInfoIS2_EENS_6detail12DenseMapPairIS2_S2_EEE4growEj
   fun:objc_msgSendSuper2
   fun:_ZN4dyldL12notifySingleE17dyld_image_statesPK11ImageLoaderPNS1_21InitializerTimingListE
   fun:_ZN11ImageLoader23recursiveInitializationERKNS_11LinkContextEjPKcRNS_21InitializerTimingListERNS_15UninitedUpwardsE
   fun:_ZN11ImageLoader23recursiveInitializationERKNS_11LinkContextEjPKcRNS_21InitializerTimingListERNS_15UninitedUpwardsE
   fun:_ZN11ImageLoader23recursiveInitializationERKNS_11LinkContextEjPKcRNS_21InitializerTimingListERNS_15UninitedUpwardsE
   fun:_ZN11ImageLoader23recursiveInitializationERKNS_11LinkContextEjPKcRNS_21InitializerTimingListERNS_15UninitedUpwardsE
   fun:_ZN11ImageLoader23recursiveInitializationERKNS_11LinkContextEjPKcRNS_21InitializerTimingListERNS_15UninitedUpwardsE
   fun:_ZN11ImageLoader23recursiveInitializationERKNS_11LinkContextEjPKcRNS_21InitializerTimingListERNS_15UninitedUpwardsE
   fun:_ZN11ImageLoader19processInitializersERKNS_11LinkContextEjRNS_21InitializerTimingListERNS_15UninitedUpwardsE
   fun:_ZN11ImageLoader15runInitializersERKNS_11LinkContextERNS_21InitializerTimingListE
}
{
   <insert_a_suppression_name_here>
   Memcheck:Leak
   match-leak-kinds: reachable
   fun:calloc
   fun:_ZN4objc8DenseMapIP10objc_classS2_NS_17DenseMapValueInfoIS2_EENS_12DenseMapInfoIS2_EENS_6detail12DenseMapPairIS2_S2_EEE4growEj
   fun:_ZN10objc_class11mangledNameEv
   fun:objc_msgSendSuper2
   fun:_ZN4dyldL12notifySingleE17dyld_image_statesPK11ImageLoaderPNS1_21InitializerTimingListE
   fun:_ZN11ImageLoader23recursiveInitializationERKNS_11LinkContextEjPKcRNS_21InitializerTimingListERNS_15UninitedUpwardsE
   fun:_ZN11ImageLoader23recursiveInitializationERKNS_11LinkContextEjPKcRNS_21InitializerTimingListERNS_15UninitedUpwardsE
   fun:_ZN11ImageLoader23recursiveInitializationERKNS_11LinkContextEjPKcRNS_21InitializerTimingListERNS_15UninitedUpwardsE
   fun:_ZN11ImageLoader23recursiveInitializationERKNS_11LinkContextEjPKcRNS_21InitializerTimingListERNS_15UninitedUpwardsE
   fun:_ZN11ImageLoader23recursiveInitializationERKNS_11LinkContextEjPKcRNS_21InitializerTimingListERNS_15UninitedUpwardsE
   fun:_ZN11ImageLoader23recursiveInitializationERKNS_11LinkContextEjPKcRNS_21InitializerTimingListERNS_15UninitedUpwardsE
   fun:_ZN11ImageLoader19processInitializersERKNS_11LinkContextEjRNS_21InitializerTimingListERNS_15UninitedUpwardsE
}
{
   <insert_a_suppression_name_here>
   Memcheck:Leak
   match-leak-kinds: reachable
   fun:calloc
   fun:_ZN4objc8DenseMapIP10objc_classS2_NS_17DenseMapValueInfoIS2_EENS_12DenseMapInfoIS2_EENS_6detail12DenseMapPairIS2_S2_EEE4growEj
   fun:_ZL16addRemappedClassP10objc_classS0_
   fun:_ZL24realizeClassWithoutSwiftP10objc_classS0_
   fun:-[NSObject dealloc]
   fun:lookUpImpOrForward
   fun:+[NSBinder load]
   fun:objc_msgLookup_fp2ret
   fun:_ZN4dyldL12notifySingleE17dyld_image_statesPK11ImageLoaderPNS1_21InitializerTimingListE
   fun:_ZN11ImageLoader23recursiveInitializationERKNS_11LinkContextEjPKcRNS_21InitializerTimingListERNS_15UninitedUpwardsE
   fun:_ZN11ImageLoader23recursiveInitializationERKNS_11LinkContextEjPKcRNS_21InitializerTimingListERNS_15UninitedUpwardsE
   fun:_ZN11ImageLoader19processInitializersERKNS_11LinkContextEjRNS_21InitializerTimingListERNS_15UninitedUpwardsE
}
{
   <insert_a_suppression_name_here>
   Memcheck:Leak
   match-leak-kinds: reachable
   fun:calloc
   fun:_ZN4objc8DenseMapIP10objc_classS2_NS_17DenseMapValueInfoIS2_EENS_12DenseMapInfoIS2_EENS_6detail12DenseMapPairIS2_S2_EEE4growEj
   fun:_ZL16addRemappedClassP10objc_classS0_
   fun:objc_initializeClassPair
   fun:+[NSString initialize]
   fun:_objc_addWillInitializeClassFunc
   fun:_ZN13list_array_ttI8method_t13method_list_t24method_list_t_authed_ptrE11attachListsEPKPS1_j
   fun:_ZL24realizeClassWithoutSwiftP10objc_classS0_
   fun:-[NSObject dealloc]
   fun:lookUpImpOrForward
   fun:+[NSString initialize]
   fun:_objc_addWillInitializeClassFunc
}
{
   <insert_a_suppression_name_here>
   Memcheck:Leak
   match-leak-kinds: reachable
   fun:calloc
   fun:_ZL12read_addressPmPK14dwarf_eh_basesh
   fun:_CFPrefsGetCacheStringForBundleID
   fun:_dispatch_client_callout
   fun:_dispatch_once_callout
   fun:_CFPrefsGetCacheStringForBundleID
   fun:-[NSUserDefaults(NSUserDefaults) init]
   fun:+[NSUserDefaults(NSUserDefaults) standardUserDefaults]
   fun:+[NSApplication initialize]
   fun:_objc_addWillInitializeClassFunc
   fun:_ZN13list_array_ttI8method_t13method_list_t24method_list_t_authed_ptrE11attachListsEPKPS1_j
   fun:_ZL24realizeClassWithoutSwiftP10objc_classS0_
}
{
   <insert_a_suppression_name_here>
   Memcheck:Leak
   match-leak-kinds: reachable
   fun:calloc
   fun:objc_msgSend_stret
   fun:__CFGetConverter
   fun:CFBasicHashSetValue
   fun:CFBasicHashCreate
   fun:__81-[_CFXPreferences(SourceAdditions) withNamedVolatileSourceForIdentifier:perform:]_block_invoke
   fun:-[_CFXPreferences(SourceAdditions) withNamedVolatileSources:]
   fun:_CFPrefsGetCacheStringForBundleID
   fun:_dispatch_client_callout
   fun:_dispatch_once_callout
   fun:_CFPrefsGetCacheStringForBundleID
   fun:-[NSUserDefaults(NSUserDefaults) init]
}
{
   <insert_a_suppression_name_here>
   Memcheck:Leak
   match-leak-kinds: reachable
   fun:calloc
   fun:objc_msgSend_stret
   fun:__CFGetConverter
   fun:CFBasicHashSetValue
   fun:CFBasicHashCreate
   fun:-[CFPrefsSource initWithContainingPreferences:]
   fun:-[_CFXPreferences(SourceAdditions) withNamedVolatileSources:]
   fun:_CFPrefsGetCacheStringForBundleID
   fun:_dispatch_client_callout
   fun:_dispatch_once_callout
   fun:_CFPrefsGetCacheStringForBundleID
   fun:-[NSUserDefaults(NSUserDefaults) init]
}
{
   <insert_a_suppression_name_here>
   Memcheck:Leak
   match-leak-kinds: reachable
   fun:calloc
   fun:objc_msgSend_stret
   fun:__CFGetConverter
   fun:CFBasicHashSetValue
   fun:CFBasicHashCreate
   fun:-[CFPrefsSource initWithContainingPreferences:]
   fun:-[_CFXPreferences(SourceAdditions) withNamedVolatileSources:]
   fun:_CFPrefsGetCacheStringForBundleID
   fun:_dispatch_client_callout
   fun:_dispatch_once_callout
   fun:_CFPrefsGetCacheStringForBundleID
   fun:-[NSUserDefaults(NSUserDefaults) init]
}
{
   <insert_a_suppression_name_here>
   Memcheck:Leak
   match-leak-kinds: reachable
   fun:calloc
   fun:objc_msgSend_stret
   fun:__CFGetConverter
   fun:CFBasicHashSetValue
   fun:CFBasicHashCreate
   fun:-[_CFXPreferences(SearchListAdditions) withSearchListForIdentifier:container:cloudConfigurationURL:perform:]
   fun:-[CFPrefsSource alreadylocked_setPrecopiedValues:forKeys:count:from:]
   fun:-[CFPrefsSource replaceAllValuesWithValues:forKeys:count:from:]
   fun:-[CFPrefsSource replaceAllValuesWithValues:forKeys:count:from:]
   fun:-[CFPrefsSource replaceAllValuesWithValues:forKeys:count:from:]
   fun:-[CFPrefsSource replaceAllValuesWithValues:forKeys:count:from:]
   fun:_CFPrefsGetCacheStringForBundleID
}
{
   <insert_a_suppression_name_here>
   Memcheck:Leak
   match-leak-kinds: reachable
   fun:calloc
   fun:objc_msgSend_stret
   fun:__CFGetConverter
   fun:CFBasicHashSetValue
   fun:-[NSUserDefaults(NSUserDefaults) init]
   fun:+[NSUserDefaults(NSUserDefaults) standardUserDefaults]
   fun:+[NSApplication initialize]
   fun:_objc_addWillInitializeClassFunc
   fun:_ZN13list_array_ttI8method_t13method_list_t24method_list_t_authed_ptrE11attachListsEPKPS1_j
   fun:_ZL24realizeClassWithoutSwiftP10objc_classS0_
   fun:-[NSObject dealloc]
   fun:lookUpImpOrForward
}
{
   <insert_a_suppression_name_here>
   Memcheck:Leak
   match-leak-kinds: reachable
   fun:malloc_zone_malloc
   fun:resolveAbsoluteURLStringBuffer
   fun:_dispatch_client_callout
   fun:_dispatch_once_callout
   fun:resolveAbsoluteURLStringBuffer
   fun:resolveAbsoluteURLStringBuffer
   fun:CFUniCharGetUnicodePropertyDataForPlane
   fun:CFUniCharDecomposeWithErrorLocation
   fun:_CFBundleCopyBundleURLForExecutableURL
   fun:CreateStringFromFileSystemRepresentationByAddingPercentEscapes
   fun:CreateStringFromFileSystemRepresentationByAddingPercentEscapes
   fun:_CFURLCreateWithFileSystemPath
}
{
   <insert_a_suppression_name_here>
   Memcheck:Leak
   match-leak-kinds: reachable
   fun:calloc
   fun:objc_msgSend_stret
   fun:__CFGetConverter
   fun:CFBasicHashSetValue
   fun:CFBasicHashCreate
   fun:__CFStringScanDouble
   fun:CFStringFindWithOptionsAndLocale
   fun:-[CFPrefsSource alreadylocked_copyKeyList]
   fun:-[CFPrefsSearchListSource addManagedSourceForIdentifier:user:]
   fun:__108-[_CFXPreferences(SearchListAdditions) withSearchListForIdentifier:container:cloudConfigurationURL:perform:]_block_invoke
   fun:__108-[_CFXPreferences(SearchListAdditions) withSearchListForIdentifier:container:cloudConfigurationURL:perform:]_block_invoke
   fun:-[NSUserDefaults(NSUserDefaults) init]
}
{
   <insert_a_suppression_name_here>
   Memcheck:Leak
   match-leak-kinds: reachable
   fun:calloc
   fun:objc_msgSend_stret
   fun:__CFGetConverter
   fun:CFBasicHashSetValue
   fun:CFBasicHashCreate
   fun:_CFURLExists
   fun:-[CFPrefsSearchListSource copyCloudConfigurationWithURL:outConfigFileSource:outStoreName:]
   fun:_CFPrefsExtractQuadrupleFromPathIfPossible
   fun:_CFPrefsExtractQuadrupleFromPathIfPossible
   fun:__destroy_helper_block_e8_32o40r48r
   fun:__CFStringAppendFormatCore
   fun:__CFStringAppendFormatCore
}
{
   <insert_a_suppression_name_here>
   Memcheck:Leak
   match-leak-kinds: reachable
   fun:malloc_zone_calloc
   fun:__NSSingleObjectArrayI_new
   fun:__CFStringCreateImmutableFunnel3
   fun:CFURLCopyAbsoluteURL
   fun:_CFCopyHomeDirURLForUser
   fun:_CFPrefsExtractQuadrupleFromPathIfPossible
   fun:_CFPrefsExtractQuadrupleFromPathIfPossible
   fun:__destroy_helper_block_e8_32o40r48r
   fun:__CFStringAppendFormatCore
   fun:__CFStringAppendFormatCore
   fun:-[CFPrefsSearchListSource addManagedSourceForIdentifier:user:]
   fun:__108-[_CFXPreferences(SearchListAdditions) withSearchListForIdentifier:container:cloudConfigurationURL:perform:]_block_invoke
}
{
   <insert_a_suppression_name_here>
   Memcheck:Leak
   match-leak-kinds: reachable
   fun:malloc_zone_calloc
   fun:__NSSingleObjectArrayI_new
   fun:__CFStringCreateImmutableFunnel3
   fun:CFURLCopyAbsoluteURL
   fun:_CFCopyHomeDirURLForUser
   fun:_CFPrefsExtractQuadrupleFromPathIfPossible
   fun:_CFPrefsExtractQuadrupleFromPathIfPossible
   fun:-[_CFXPreferences(SearchListAdditions) assertEquivalence:ofIdentifiers:containers:cloudConfigurationURLs:]
   fun:__CFStringAppendFormatCore
   fun:__CFStringAppendFormatCore
   fun:-[CFPrefsSearchListSource addManagedSourceForIdentifier:user:]
   fun:__108-[_CFXPreferences(SearchListAdditions) withSearchListForIdentifier:container:cloudConfigurationURL:perform:]_block_invoke
}
{
   <insert_a_suppression_name_here>
   Memcheck:Leak
   match-leak-kinds: reachable
   fun:calloc
   fun:objc_msgSend_stret
   fun:_os_object_alloc_realized
   fun:xpc_mach_send_create_with_disposition
   fun:xpc_dictionary_set_mach_send
   fun:_vproc_create_request
   fun:vproc_swap_complex
   fun:vproc_swap_string
   fun:-[CFPrefsPlistSource handleReply:toRequestNewDataMessage:onConnection:retryCount:error:]
   fun:_dispatch_client_callout
   fun:_dispatch_once_callout
   fun:-[CFPrefsPlistSource handleReply:toRequestNewDataMessage:onConnection:retryCount:error:]
}
{
   <insert_a_suppression_name_here>
   Memcheck:Leak
   match-leak-kinds: possible
   fun:calloc
   fun:_ZN4objc8DenseMapIP10objc_classS2_NS_17DenseMapValueInfoIS2_EENS_12DenseMapInfoIS2_EENS_6detail12DenseMapPairIS2_S2_EEE4growEj
   fun:_ZN10objc_class11mangledNameEv
   fun:_ZL16addRemappedClassP10objc_classS0_
   fun:objc_initializeClassPair
   fun:objc_registerClassPair
   fun:__CFStringCreateImmutableFunnel3
   fun:__CFInitialize
   fun:_ZN16ImageLoaderMachO11doImageInitERKN11ImageLoader11LinkContextE
   fun:_ZN16ImageLoaderMachO16doInitializationERKN11ImageLoader11LinkContextE
   fun:_ZN11ImageLoader23recursiveInitializationERKNS_11LinkContextEjPKcRNS_21InitializerTimingListERNS_15UninitedUpwardsE
   fun:_ZN11ImageLoader23recursiveInitializationERKNS_11LinkContextEjPKcRNS_21InitializerTimingListERNS_15UninitedUpwardsE
}
{
   <insert_a_suppression_name_here>
   Memcheck:Leak
   match-leak-kinds: possible
   fun:calloc
   fun:_ZN4objc8DenseMapIP10objc_classS2_NS_17DenseMapValueInfoIS2_EENS_12DenseMapInfoIS2_EENS_6detail12DenseMapPairIS2_S2_EEE4growEj
   fun:_ZN10objc_class11mangledNameEv
   fun:_ZL16addRemappedClassP10objc_classS0_
   fun:objc_initializeClassPair
   fun:objc_registerClassPair
   fun:__CFStringCreateImmutableFunnel3
   fun:__CFInitialize
   fun:_ZN16ImageLoaderMachO11doImageInitERKN11ImageLoader11LinkContextE
   fun:_ZN16ImageLoaderMachO16doInitializationERKN11ImageLoader11LinkContextE
   fun:_ZN11ImageLoader23recursiveInitializationERKNS_11LinkContextEjPKcRNS_21InitializerTimingListERNS_15UninitedUpwardsE
   fun:_ZN11ImageLoader23recursiveInitializationERKNS_11LinkContextEjPKcRNS_21InitializerTimingListERNS_15UninitedUpwardsE
}
{
   <insert_a_suppression_name_here>
   Memcheck:Leak
   match-leak-kinds: possible
   fun:calloc
   fun:_ZN4objc8DenseMapIP10objc_classS2_NS_17DenseMapValueInfoIS2_EENS_12DenseMapInfoIS2_EENS_6detail12DenseMapPairIS2_S2_EEE4growEj
   fun:_ZN10objc_class11mangledNameEv
   fun:_ZL16addRemappedClassP10objc_classS0_
   fun:objc_initializeClassPair
   fun:objc_registerClassPair
   fun:__CFStringCreateImmutableFunnel3
   fun:__CFInitialize
   fun:_ZN16ImageLoaderMachO11doImageInitERKN11ImageLoader11LinkContextE
   fun:_ZN16ImageLoaderMachO16doInitializationERKN11ImageLoader11LinkContextE
   fun:_ZN11ImageLoader23recursiveInitializationERKNS_11LinkContextEjPKcRNS_21InitializerTimingListERNS_15UninitedUpwardsE
   fun:_ZN11ImageLoader23recursiveInitializationERKNS_11LinkContextEjPKcRNS_21InitializerTimingListERNS_15UninitedUpwardsE
}
{
   <insert_a_suppression_name_here>
   Memcheck:Leak
   match-leak-kinds: possible
   fun:calloc
   fun:_ZN4objc8DenseMapIP10objc_classS2_NS_17DenseMapValueInfoIS2_EENS_12DenseMapInfoIS2_EENS_6detail12DenseMapPairIS2_S2_EEE4growEj
   fun:_ZN10objc_class11mangledNameEv
   fun:_ZL16addRemappedClassP10objc_classS0_
   fun:objc_initializeClassPair
   fun:objc_registerClassPair
   fun:__CFStringCreateImmutableFunnel3
   fun:__CFInitialize
   fun:_ZN16ImageLoaderMachO11doImageInitERKN11ImageLoader11LinkContextE
   fun:_ZN16ImageLoaderMachO16doInitializationERKN11ImageLoader11LinkContextE
   fun:_ZN11ImageLoader23recursiveInitializationERKNS_11LinkContextEjPKcRNS_21InitializerTimingListERNS_15UninitedUpwardsE
   fun:_ZN11ImageLoader23recursiveInitializationERKNS_11LinkContextEjPKcRNS_21InitializerTimingListERNS_15UninitedUpwardsE
}
{
   <insert_a_suppression_name_here>
   Memcheck:Leak
   match-leak-kinds: possible
   fun:malloc
   fun:_ZL24realizeClassWithoutSwiftP10objc_classS0_
   fun:_ZL32adjustCustomFlagsForMethodChangeP10objc_classP8method_t
   fun:_ZL32adjustCustomFlagsForMethodChangeP10objc_classP8method_t
   fun:_ZL16attachCategoriesP10objc_classPK21locstamped_category_tji
   fun:_ZN10objc_class11mangledNameEv
   fun:_ZL16addRemappedClassP10objc_classS0_
   fun:objc_initializeClassPair
   fun:objc_registerClassPair
   fun:__CFStringCreateImmutableFunnel3
   fun:__CFInitialize
   fun:_ZN16ImageLoaderMachO11doImageInitERKN11ImageLoader11LinkContextE
}
{
   <insert_a_suppression_name_here>
   Memcheck:Leak
   match-leak-kinds: possible
   fun:malloc
   fun:_ZL24realizeClassWithoutSwiftP10objc_classS0_
   fun:_ZL32adjustCustomFlagsForMethodChangeP10objc_classP8method_t
   fun:_ZL32adjustCustomFlagsForMethodChangeP10objc_classP8method_t
   fun:_ZL16attachCategoriesP10objc_classPK21locstamped_category_tji
   fun:_ZL16addRemappedClassP10objc_classS0_
   fun:objc_initializeClassPair
   fun:objc_registerClassPair
   fun:__CFStringCreateImmutableFunnel3
   fun:__CFInitialize
   fun:_ZN16ImageLoaderMachO11doImageInitERKN11ImageLoader11LinkContextE
   fun:_ZN16ImageLoaderMachO16doInitializationERKN11ImageLoader11LinkContextE
}
{
   <insert_a_suppression_name_here>
   Memcheck:Leak
   match-leak-kinds: possible
   fun:malloc
   fun:_ZL24realizeClassWithoutSwiftP10objc_classS0_
   fun:_ZL32adjustCustomFlagsForMethodChangeP10objc_classP8method_t
   fun:_ZL32adjustCustomFlagsForMethodChangeP10objc_classP8method_t
   fun:_ZL16attachCategoriesP10objc_classPK21locstamped_category_tji
   fun:_ZN10objc_class11mangledNameEv
   fun:_ZN10objc_class11mangledNameEv
   fun:_ZL16addRemappedClassP10objc_classS0_
   fun:objc_initializeClassPair
   fun:objc_registerClassPair
   fun:__CFStringCreateImmutableFunnel3
   fun:__CFInitializeLinkCheck
}
{
   <insert_a_suppression_name_here>
   Memcheck:Leak
   match-leak-kinds: possible
   fun:malloc
   fun:_ZL24realizeClassWithoutSwiftP10objc_classS0_
   fun:_ZL32adjustCustomFlagsForMethodChangeP10objc_classP8method_t
   fun:_ZL32adjustCustomFlagsForMethodChangeP10objc_classP8method_t
   fun:_ZL16attachCategoriesP10objc_classPK21locstamped_category_tji
   fun:_ZN10objc_class11mangledNameEv
   fun:_ZL16addRemappedClassP10objc_classS0_
   fun:objc_initializeClassPair
   fun:objc_registerClassPair
   fun:__CFStringCreateImmutableFunnel3
   fun:__CFInitializeLinkCheck
   fun:_ZN16ImageLoaderMachO11doImageInitERKN11ImageLoader11LinkContextE
}
{
   <insert_a_suppression_name_here>
   Memcheck:Leak
   match-leak-kinds: possible
   fun:malloc
   fun:_ZL24realizeClassWithoutSwiftP10objc_classS0_
   fun:_ZL32adjustCustomFlagsForMethodChangeP10objc_classP8method_t
   fun:_ZL32adjustCustomFlagsForMethodChangeP10objc_classP8method_t
   fun:_ZL16attachCategoriesP10objc_classPK21locstamped_category_tji
   fun:_ZN10objc_class11mangledNameEv
   fun:_ZL16addRemappedClassP10objc_classS0_
   fun:objc_initializeClassPair
   fun:objc_registerClassPair
   fun:__CFStringCreateImmutableFunnel3
   fun:__CFInitializeLinkCheck
   fun:_ZN16ImageLoaderMachO11doImageInitERKN11ImageLoader11LinkContextE
}
{
   <insert_a_suppression_name_here>
   Memcheck:Leak
   match-leak-kinds: possible
   fun:calloc
   fun:_ZN4objc8DenseMapIP10objc_classS2_NS_17DenseMapValueInfoIS2_EENS_12DenseMapInfoIS2_EENS_6detail12DenseMapPairIS2_S2_EEE4growEj
   fun:_ZN10objc_class11mangledNameEv
   fun:_ZL16addRemappedClassP10objc_classS0_
   fun:objc_initializeClassPair
   fun:_NSToDoAtProcessStart
   fun:_NSInitializePlatform
   fun:objc_msgLookup_fpret
   fun:_ZN4dyldL12notifySingleE17dyld_image_statesPK11ImageLoaderPNS1_21InitializerTimingListE
   fun:_ZN11ImageLoader23recursiveInitializationERKNS_11LinkContextEjPKcRNS_21InitializerTimingListERNS_15UninitedUpwardsE
   fun:_ZN11ImageLoader23recursiveInitializationERKNS_11LinkContextEjPKcRNS_21InitializerTimingListERNS_15UninitedUpwardsE
   fun:_ZN11ImageLoader23recursiveInitializationERKNS_11LinkContextEjPKcRNS_21InitializerTimingListERNS_15UninitedUpwardsE
}
{
   <insert_a_suppression_name_here>
   Memcheck:Leak
   match-leak-kinds: possible
   fun:calloc
   fun:_ZN4objc8DenseMapIP10objc_classS2_NS_17DenseMapValueInfoIS2_EENS_12DenseMapInfoIS2_EENS_6detail12DenseMapPairIS2_S2_EEE4growEj
   fun:_ZN10objc_class11mangledNameEv
   fun:_ZN10objc_class11mangledNameEv
   fun:_ZL16addRemappedClassP10objc_classS0_
   fun:objc_initializeClassPair
   fun:_NSToDoAtProcessStart
   fun:_NSInitializePlatform
   fun:objc_msgLookup_fpret
   fun:_ZN4dyldL12notifySingleE17dyld_image_statesPK11ImageLoaderPNS1_21InitializerTimingListE
   fun:_ZN11ImageLoader23recursiveInitializationERKNS_11LinkContextEjPKcRNS_21InitializerTimingListERNS_15UninitedUpwardsE
   fun:_ZN11ImageLoader23recursiveInitializationERKNS_11LinkContextEjPKcRNS_21InitializerTimingListERNS_15UninitedUpwardsE
}
{
   <insert_a_suppression_name_here>
   Memcheck:Leak
   match-leak-kinds: possible
   fun:malloc
   fun:_ZL24realizeClassWithoutSwiftP10objc_classS0_
   fun:_ZL32adjustCustomFlagsForMethodChangeP10objc_classP8method_t
   fun:_ZL32adjustCustomFlagsForMethodChangeP10objc_classP8method_t
   fun:_ZL16attachCategoriesP10objc_classPK21locstamped_category_tji
   fun:_ZN10objc_class11mangledNameEv
   fun:_ZL16addRemappedClassP10objc_classS0_
   fun:objc_initializeClassPair
   fun:_NSToDoAtProcessStart
   fun:_NSInitializePlatform
   fun:objc_msgLookup_fpret
   fun:_ZN4dyldL12notifySingleE17dyld_image_statesPK11ImageLoaderPNS1_21InitializerTimingListE
}
{
   <insert_a_suppression_name_here>
   Memcheck:Leak
   match-leak-kinds: possible
   fun:malloc
   fun:_ZL24realizeClassWithoutSwiftP10objc_classS0_
   fun:_ZL32adjustCustomFlagsForMethodChangeP10objc_classP8method_t
   fun:_ZL32adjustCustomFlagsForMethodChangeP10objc_classP8method_t
   fun:_ZL16attachCategoriesP10objc_classPK21locstamped_category_tji
   fun:_ZL16addRemappedClassP10objc_classS0_
   fun:objc_initializeClassPair
   fun:_NSToDoAtProcessStart
   fun:_NSInitializePlatform
   fun:objc_msgLookup_fpret
   fun:_ZN4dyldL12notifySingleE17dyld_image_statesPK11ImageLoaderPNS1_21InitializerTimingListE
   fun:_ZN11ImageLoader23recursiveInitializationERKNS_11LinkContextEjPKcRNS_21InitializerTimingListERNS_15UninitedUpwardsE
}
{
   <insert_a_suppression_name_here>
   Memcheck:Leak
   match-leak-kinds: possible
   fun:malloc
   fun:_ZL24realizeClassWithoutSwiftP10objc_classS0_
   fun:_ZL32adjustCustomFlagsForMethodChangeP10objc_classP8method_t
   fun:_ZL32adjustCustomFlagsForMethodChangeP10objc_classP8method_t
   fun:_ZL16attachCategoriesP10objc_classPK21locstamped_category_tji
   fun:_ZN10objc_class11mangledNameEv
   fun:_ZN10objc_class11mangledNameEv
   fun:_ZL16addRemappedClassP10objc_classS0_
   fun:objc_initializeClassPair
   fun:_NSToDoAtProcessStart
   fun:_NSInitializePlatform
   fun:objc_msgLookup_fpret
}
{
   <insert_a_suppression_name_here>
   Memcheck:Leak
   match-leak-kinds: possible
   fun:malloc
   fun:_ZL24realizeClassWithoutSwiftP10objc_classS0_
   fun:_ZL32adjustCustomFlagsForMethodChangeP10objc_classP8method_t
   fun:_ZL32adjustCustomFlagsForMethodChangeP10objc_classP8method_t
   fun:_ZL16attachCategoriesP10objc_classPK21locstamped_category_tji
   fun:_ZL16addRemappedClassP10objc_classS0_
   fun:objc_initializeClassPair
   fun:_NSToDoAtProcessStart
   fun:_NSInitializePlatform
   fun:objc_msgLookup_fpret
   fun:_ZN4dyldL12notifySingleE17dyld_image_statesPK11ImageLoaderPNS1_21InitializerTimingListE
   fun:_ZN11ImageLoader23recursiveInitializationERKNS_11LinkContextEjPKcRNS_21InitializerTimingListERNS_15UninitedUpwardsE
}
{
   <insert_a_suppression_name_here>
   Memcheck:Leak
   match-leak-kinds: possible
   fun:malloc
   fun:_ZL24realizeClassWithoutSwiftP10objc_classS0_
   fun:_ZL32adjustCustomFlagsForMethodChangeP10objc_classP8method_t
   fun:_ZL32adjustCustomFlagsForMethodChangeP10objc_classP8method_t
   fun:_ZL16attachCategoriesP10objc_classPK21locstamped_category_tji
   fun:_ZN10objc_class11mangledNameEv
   fun:objc_msgSendSuper2
   fun:_ZN4dyldL12notifySingleE17dyld_image_statesPK11ImageLoaderPNS1_21InitializerTimingListE
   fun:_ZN11ImageLoader23recursiveInitializationERKNS_11LinkContextEjPKcRNS_21InitializerTimingListERNS_15UninitedUpwardsE
   fun:_ZN11ImageLoader23recursiveInitializationERKNS_11LinkContextEjPKcRNS_21InitializerTimingListERNS_15UninitedUpwardsE
   fun:_ZN11ImageLoader23recursiveInitializationERKNS_11LinkContextEjPKcRNS_21InitializerTimingListERNS_15UninitedUpwardsE
   fun:_ZN11ImageLoader23recursiveInitializationERKNS_11LinkContextEjPKcRNS_21InitializerTimingListERNS_15UninitedUpwardsE
}
{
   <insert_a_suppression_name_here>
   Memcheck:Leak
   match-leak-kinds: possible
   fun:malloc
   fun:_ZL24realizeClassWithoutSwiftP10objc_classS0_
   fun:_ZL32adjustCustomFlagsForMethodChangeP10objc_classP8method_t
   fun:_ZL32adjustCustomFlagsForMethodChangeP10objc_classP8method_t
   fun:_ZL16attachCategoriesP10objc_classPK21locstamped_category_tji
   fun:objc_msgSendSuper2
   fun:_ZN4dyldL12notifySingleE17dyld_image_statesPK11ImageLoaderPNS1_21InitializerTimingListE
   fun:_ZN11ImageLoader23recursiveInitializationERKNS_11LinkContextEjPKcRNS_21InitializerTimingListERNS_15UninitedUpwardsE
   fun:_ZN11ImageLoader23recursiveInitializationERKNS_11LinkContextEjPKcRNS_21InitializerTimingListERNS_15UninitedUpwardsE
   fun:_ZN11ImageLoader23recursiveInitializationERKNS_11LinkContextEjPKcRNS_21InitializerTimingListERNS_15UninitedUpwardsE
   fun:_ZN11ImageLoader23recursiveInitializationERKNS_11LinkContextEjPKcRNS_21InitializerTimingListERNS_15UninitedUpwardsE
   fun:_ZN11ImageLoader23recursiveInitializationERKNS_11LinkContextEjPKcRNS_21InitializerTimingListERNS_15UninitedUpwardsE
}
{
   <insert_a_suppression_name_here>
   Memcheck:Leak
   match-leak-kinds: reachable
   fun:malloc
   fun:__setenv_locked
   fun:setenv
   fun:_CFExecutableLinkedOnOrAfterProgramSDK
   fun:__CFInitialize
   fun:_ZN16ImageLoaderMachO11doImageInitERKN11ImageLoader11LinkContextE
   fun:_ZN16ImageLoaderMachO16doInitializationERKN11ImageLoader11LinkContextE
   fun:_ZN11ImageLoader23recursiveInitializationERKNS_11LinkContextEjPKcRNS_21InitializerTimingListERNS_15UninitedUpwardsE
   fun:_ZN11ImageLoader23recursiveInitializationERKNS_11LinkContextEjPKcRNS_21InitializerTimingListERNS_15UninitedUpwardsE
   fun:_ZN11ImageLoader23recursiveInitializationERKNS_11LinkContextEjPKcRNS_21InitializerTimingListERNS_15UninitedUpwardsE
   fun:_ZN11ImageLoader23recursiveInitializationERKNS_11LinkContextEjPKcRNS_21InitializerTimingListERNS_15UninitedUpwardsE
   fun:_ZN11ImageLoader23recursiveInitializationERKNS_11LinkContextEjPKcRNS_21InitializerTimingListERNS_15UninitedUpwardsE
}
{
   <insert_a_suppression_name_here>
   Memcheck:Leak
   match-leak-kinds: possible
   fun:malloc
   fun:_ZL24realizeClassWithoutSwiftP10objc_classS0_
   fun:_ZL32adjustCustomFlagsForMethodChangeP10objc_classP8method_t
   fun:_ZL32adjustCustomFlagsForMethodChangeP10objc_classP8method_t
   fun:_ZL16attachCategoriesP10objc_classPK21locstamped_category_tji
   fun:_ZL16addRemappedClassP10objc_classS0_
   fun:objc_initializeClassPair
   fun:objc_registerClassPair
   fun:__CFStringCreateImmutableFunnel3
   fun:__CFInitialize
   fun:_ZN16ImageLoaderMachO11doImageInitERKN11ImageLoader11LinkContextE
   fun:_ZN16ImageLoaderMachO16doInitializationERKN11ImageLoader11LinkContextE
}
{
   <insert_a_suppression_name_here>
   Memcheck:Leak
   match-leak-kinds: possible
   fun:malloc
   fun:_ZL24realizeClassWithoutSwiftP10objc_classS0_
   fun:_ZL32adjustCustomFlagsForMethodChangeP10objc_classP8method_t
   fun:_ZL32adjustCustomFlagsForMethodChangeP10objc_classP8method_t
   fun:_ZL16attachCategoriesP10objc_classPK21locstamped_category_tji
   fun:_ZL16addRemappedClassP10objc_classS0_
   fun:objc_initializeClassPair
   fun:objc_registerClassPair
   fun:__CFStringCreateImmutableFunnel3
   fun:__CFInitialize
   fun:_ZN16ImageLoaderMachO11doImageInitERKN11ImageLoader11LinkContextE
   fun:_ZN16ImageLoaderMachO16doInitializationERKN11ImageLoader11LinkContextE
}
{
   <insert_a_suppression_name_here>
   Memcheck:Leak
   match-leak-kinds: possible
   fun:malloc
   fun:_ZL24realizeClassWithoutSwiftP10objc_classS0_
   fun:_ZL32adjustCustomFlagsForMethodChangeP10objc_classP8method_t
   fun:_ZL32adjustCustomFlagsForMethodChangeP10objc_classP8method_t
   fun:_ZL16attachCategoriesP10objc_classPK21locstamped_category_tji
   fun:_ZN10objc_class11mangledNameEv
   fun:_ZL16addRemappedClassP10objc_classS0_
   fun:objc_initializeClassPair
   fun:_NSToDoAtProcessStart
   fun:_NSInitializePlatform
   fun:objc_msgLookup_fpret
   fun:_ZN4dyldL12notifySingleE17dyld_image_statesPK11ImageLoaderPNS1_21InitializerTimingListE
}
{
   <insert_a_suppression_name_here>
   Memcheck:Leak
   match-leak-kinds: possible
   fun:malloc
   fun:_ZL24realizeClassWithoutSwiftP10objc_classS0_
   fun:_ZL32adjustCustomFlagsForMethodChangeP10objc_classP8method_t
   fun:_ZL32adjustCustomFlagsForMethodChangeP10objc_classP8method_t
   fun:_ZL16attachCategoriesP10objc_classPK21locstamped_category_tji
   fun:_ZL16addRemappedClassP10objc_classS0_
   fun:objc_initializeClassPair
   fun:_NSToDoAtProcessStart
   fun:_NSInitializePlatform
   fun:objc_msgLookup_fpret
   fun:_ZN4dyldL12notifySingleE17dyld_image_statesPK11ImageLoaderPNS1_21InitializerTimingListE
   fun:_ZN11ImageLoader23recursiveInitializationERKNS_11LinkContextEjPKcRNS_21InitializerTimingListERNS_15UninitedUpwardsE
}
{
   <insert_a_suppression_name_here>
   Memcheck:Leak
   match-leak-kinds: reachable
   fun:malloc
   fun:_xpc_malloc
   fun:_xpc_dictionary_insert
   fun:xpc_dictionary_set_bool
   fun:vproc_swap_complex
   fun:vproc_swap_string
   fun:-[CFPrefsPlistSource handleReply:toRequestNewDataMessage:onConnection:retryCount:error:]
   fun:_dispatch_client_callout
   fun:_dispatch_once_callout
   fun:-[CFPrefsPlistSource handleReply:toRequestNewDataMessage:onConnection:retryCount:error:]
   fun:-[CFPrefsPlistSource handleReply:toRequestNewDataMessage:onConnection:retryCount:error:]
   fun:-[CFPrefsPlistSource handleReply:toRequestNewDataMessage:onConnection:retryCount:error:]
}
{
   <insert_a_suppression_name_here>
   Memcheck:Leak
   match-leak-kinds: reachable
   fun:malloc
   fun:strdup
   fun:__CFGetConverter
   fun:_CFStringGetUserDefaultEncoding
   fun:_ZN16ImageLoaderMachO11doImageInitERKN11ImageLoader11LinkContextE
   fun:_ZN16ImageLoaderMachO16doInitializationERKN11ImageLoader11LinkContextE
   fun:_ZN11ImageLoader23recursiveInitializationERKNS_11LinkContextEjPKcRNS_21InitializerTimingListERNS_15UninitedUpwardsE
   fun:_ZN11ImageLoader23recursiveInitializationERKNS_11LinkContextEjPKcRNS_21InitializerTimingListERNS_15UninitedUpwardsE
   fun:_ZN11ImageLoader23recursiveInitializationERKNS_11LinkContextEjPKcRNS_21InitializerTimingListERNS_15UninitedUpwardsE
   fun:_ZN11ImageLoader23recursiveInitializationERKNS_11LinkContextEjPKcRNS_21InitializerTimingListERNS_15UninitedUpwardsE
   fun:_ZN11ImageLoader23recursiveInitializationERKNS_11LinkContextEjPKcRNS_21InitializerTimingListERNS_15UninitedUpwardsE
   fun:_ZN11ImageLoader23recursiveInitializationERKNS_11LinkContextEjPKcRNS_21InitializerTimingListERNS_15UninitedUpwardsE
}
{
   <insert_a_suppression_name_here>
   Memcheck:Leak
   match-leak-kinds: reachable
   fun:malloc
   fun:_xpc_malloc
   fun:_xpc_dictionary_insert
   fun:xpc_dictionary_set_uint64
   fun:_vproc_create_request
   fun:vproc_swap_complex
   fun:vproc_swap_string
   fun:-[CFPrefsPlistSource handleReply:toRequestNewDataMessage:onConnection:retryCount:error:]
   fun:_dispatch_client_callout
   fun:_dispatch_once_callout
   fun:-[CFPrefsPlistSource handleReply:toRequestNewDataMessage:onConnection:retryCount:error:]
   fun:-[CFPrefsPlistSource handleReply:toRequestNewDataMessage:onConnection:retryCount:error:]
}
{
   <insert_a_suppression_name_here>
   Memcheck:Leak
   match-leak-kinds: reachable
   fun:malloc
   fun:_xpc_malloc
   fun:_xpc_dictionary_insert
   fun:xpc_dictionary_set_bool
   fun:_vproc_create_request
   fun:vproc_swap_complex
   fun:vproc_swap_string
   fun:-[CFPrefsPlistSource handleReply:toRequestNewDataMessage:onConnection:retryCount:error:]
   fun:_dispatch_client_callout
   fun:_dispatch_once_callout
   fun:-[CFPrefsPlistSource handleReply:toRequestNewDataMessage:onConnection:retryCount:error:]
   fun:-[CFPrefsPlistSource handleReply:toRequestNewDataMessage:onConnection:retryCount:error:]
}
{
   <insert_a_suppression_name_here>
   Memcheck:Leak
   match-leak-kinds: reachable
   fun:malloc
   fun:strdup
   fun:xpc_string_create
   fun:xpc_dictionary_set_string
   fun:-[CFPrefsSearchListSource synchronouslySendDaemonMessage:andAgentMessage:andDirectMessage:replyHandler:]
   fun:-[_CFXPreferences currentUserHasInvalidHomeDirectory]
   fun:_CFPrefsEncodeValueIntoMessage
   fun:-[CFPrefsPlistSource createSynchronizeMessage]
   fun:-[CFPrefsPlistSource volatilizeIfInvalidHomeDir]
   fun:__isOnDirectModeBlackList_block_invoke
   fun:-[CFPrefsPlistSource createRequestNewContentMessageForDaemon:]
   fun:generationCountFromListOfSources
}
{
   <insert_a_suppression_name_here>
   Memcheck:Leak
   match-leak-kinds: reachable
   fun:malloc
   fun:_xpc_malloc
   fun:_xpc_dictionary_insert
   fun:xpc_dictionary_set_uint64
   fun:_vproc_create_request
   fun:vproc_swap_complex
   fun:vproc_swap_string
   fun:-[CFPrefsPlistSource handleReply:toRequestNewDataMessage:onConnection:retryCount:error:]
   fun:_dispatch_client_callout
   fun:_dispatch_once_callout
   fun:-[CFPrefsPlistSource handleReply:toRequestNewDataMessage:onConnection:retryCount:error:]
   fun:-[CFPrefsPlistSource handleReply:toRequestNewDataMessage:onConnection:retryCount:error:]
}
{
   <insert_a_suppression_name_here>
   Memcheck:Leak
   match-leak-kinds: reachable
   fun:malloc
   fun:_xpc_malloc
   fun:_xpc_dictionary_insert
   fun:xpc_dictionary_set_uint64
   fun:vproc_swap_complex
   fun:vproc_swap_string
   fun:-[CFPrefsPlistSource handleReply:toRequestNewDataMessage:onConnection:retryCount:error:]
   fun:_dispatch_client_callout
   fun:_dispatch_once_callout
   fun:-[CFPrefsPlistSource handleReply:toRequestNewDataMessage:onConnection:retryCount:error:]
   fun:-[CFPrefsPlistSource handleReply:toRequestNewDataMessage:onConnection:retryCount:error:]
   fun:-[CFPrefsPlistSource handleReply:toRequestNewDataMessage:onConnection:retryCount:error:]
}
{
   <insert_a_suppression_name_here>
   Memcheck:Leak
   match-leak-kinds: reachable
   fun:calloc
   fun:_ZL12read_addressPmPK14dwarf_eh_basesh
   fun:+[NSBinder load]
   fun:objc_msgLookup_fp2ret
   fun:_ZN4dyldL12notifySingleE17dyld_image_statesPK11ImageLoaderPNS1_21InitializerTimingListE
   fun:_ZN11ImageLoader23recursiveInitializationERKNS_11LinkContextEjPKcRNS_21InitializerTimingListERNS_15UninitedUpwardsE
   fun:_ZN11ImageLoader23recursiveInitializationERKNS_11LinkContextEjPKcRNS_21InitializerTimingListERNS_15UninitedUpwardsE
   fun:_ZN11ImageLoader19processInitializersERKNS_11LinkContextEjRNS_21InitializerTimingListERNS_15UninitedUpwardsE
   fun:_ZN11ImageLoader15runInitializersERKNS_11LinkContextERNS_21InitializerTimingListE
   fun:_ZN4dyld24initializeMainExecutableEv
   fun:_ZN4dyld5_mainEPK12macho_headermiPPKcS5_S5_Pm
   fun:_ZN13dyldbootstrap5startEPKN5dyld311MachOLoadedEiPPKcS3_Pm
}
{
   <insert_a_suppression_name_here>
   Memcheck:Leak
   match-leak-kinds: reachable
   fun:calloc
   fun:_ZL12read_addressPmPK14dwarf_eh_basesh
   fun:+[NSBinder load]
   fun:objc_msgLookup_fp2ret
   fun:_ZN4dyldL12notifySingleE17dyld_image_statesPK11ImageLoaderPNS1_21InitializerTimingListE
   fun:_ZN11ImageLoader23recursiveInitializationERKNS_11LinkContextEjPKcRNS_21InitializerTimingListERNS_15UninitedUpwardsE
   fun:_ZN11ImageLoader23recursiveInitializationERKNS_11LinkContextEjPKcRNS_21InitializerTimingListERNS_15UninitedUpwardsE
   fun:_ZN11ImageLoader19processInitializersERKNS_11LinkContextEjRNS_21InitializerTimingListERNS_15UninitedUpwardsE
   fun:_ZN11ImageLoader15runInitializersERKNS_11LinkContextERNS_21InitializerTimingListE
   fun:_ZN4dyld24initializeMainExecutableEv
   fun:_ZN4dyld5_mainEPK12macho_headermiPPKcS5_S5_Pm
   fun:_ZN13dyldbootstrap5startEPKN5dyld311MachOLoadedEiPPKcS3_Pm
}
{
   <insert_a_suppression_name_here>
   Memcheck:Leak
   match-leak-kinds: reachable
   fun:calloc
   fun:_ZL12read_addressPmPK14dwarf_eh_basesh
   fun:+[NSBinder load]
   fun:objc_msgLookup_fp2ret
   fun:_ZN4dyldL12notifySingleE17dyld_image_statesPK11ImageLoaderPNS1_21InitializerTimingListE
   fun:_ZN11ImageLoader23recursiveInitializationERKNS_11LinkContextEjPKcRNS_21InitializerTimingListERNS_15UninitedUpwardsE
   fun:_ZN11ImageLoader23recursiveInitializationERKNS_11LinkContextEjPKcRNS_21InitializerTimingListERNS_15UninitedUpwardsE
   fun:_ZN11ImageLoader19processInitializersERKNS_11LinkContextEjRNS_21InitializerTimingListERNS_15UninitedUpwardsE
   fun:_ZN11ImageLoader15runInitializersERKNS_11LinkContextERNS_21InitializerTimingListE
   fun:_ZN4dyld24initializeMainExecutableEv
   fun:_ZN4dyld5_mainEPK12macho_headermiPPKcS5_S5_Pm
   fun:_ZN13dyldbootstrap5startEPKN5dyld311MachOLoadedEiPPKcS3_Pm
}
{
   <insert_a_suppression_name_here>
   Memcheck:Leak
   match-leak-kinds: reachable
   fun:calloc
   fun:_ZL12read_addressPmPK14dwarf_eh_basesh
   fun:+[NSBinder load]
   fun:objc_msgLookup_fp2ret
   fun:_ZN4dyldL12notifySingleE17dyld_image_statesPK11ImageLoaderPNS1_21InitializerTimingListE
   fun:_ZN11ImageLoader23recursiveInitializationERKNS_11LinkContextEjPKcRNS_21InitializerTimingListERNS_15UninitedUpwardsE
   fun:_ZN11ImageLoader23recursiveInitializationERKNS_11LinkContextEjPKcRNS_21InitializerTimingListERNS_15UninitedUpwardsE
   fun:_ZN11ImageLoader19processInitializersERKNS_11LinkContextEjRNS_21InitializerTimingListERNS_15UninitedUpwardsE
   fun:_ZN11ImageLoader15runInitializersERKNS_11LinkContextERNS_21InitializerTimingListE
   fun:_ZN4dyld24initializeMainExecutableEv
   fun:_ZN4dyld5_mainEPK12macho_headermiPPKcS5_S5_Pm
   fun:_ZN13dyldbootstrap5startEPKN5dyld311MachOLoadedEiPPKcS3_Pm
}
{
   <insert_a_suppression_name_here>
   Memcheck:Leak
   match-leak-kinds: reachable
   fun:calloc
   fun:_ZL12read_addressPmPK14dwarf_eh_basesh
   fun:+[NSUserDefaults(NSUserDefaults) standardUserDefaults]
   fun:+[NSApplication initialize]
   fun:_objc_addWillInitializeClassFunc
   fun:_ZN13list_array_ttI8method_t13method_list_t24method_list_t_authed_ptrE11attachListsEPKPS1_j
   fun:_ZL24realizeClassWithoutSwiftP10objc_classS0_
   fun:-[NSObject dealloc]
   fun:lookUpImpOrForward
   fun:mlx_init
   fun:main
}
{
   <insert_a_suppression_name_here>
   Memcheck:Leak
   match-leak-kinds: reachable
   fun:calloc
   fun:objc_msgSend_stret
   fun:__CFGetConverter
   fun:parseXMLElement
   fun:-[NSUserDefaults(NSUserDefaults) init]
   fun:+[NSUserDefaults(NSUserDefaults) standardUserDefaults]
   fun:+[NSApplication initialize]
   fun:_objc_addWillInitializeClassFunc
   fun:_ZN13list_array_ttI8method_t13method_list_t24method_list_t_authed_ptrE11attachListsEPKPS1_j
   fun:_ZL24realizeClassWithoutSwiftP10objc_classS0_
   fun:-[NSObject dealloc]
   fun:lookUpImpOrForward
}
{
   <insert_a_suppression_name_here>
   Memcheck:Leak
   match-leak-kinds: reachable
   fun:calloc
   fun:objc_msgSend_stret
   fun:__CFGetConverter
   fun:parseXMLElement
   fun:-[NSUserDefaults(NSUserDefaults) init]
   fun:+[NSUserDefaults(NSUserDefaults) standardUserDefaults]
   fun:+[NSApplication initialize]
   fun:_objc_addWillInitializeClassFunc
   fun:_ZN13list_array_ttI8method_t13method_list_t24method_list_t_authed_ptrE11attachListsEPKPS1_j
   fun:_ZL24realizeClassWithoutSwiftP10objc_classS0_
   fun:-[NSObject dealloc]
   fun:lookUpImpOrForward
}
{
   <insert_a_suppression_name_here>
   Memcheck:Leak
   match-leak-kinds: reachable
   fun:calloc
   fun:_ZL12read_addressPmPK14dwarf_eh_basesh
   fun:__28+[NSProcessInfo processInfo]_block_invoke
   fun:_dispatch_client_callout
   fun:_dispatch_once_callout
   fun:+[NSProcessInfo processInfo]
   fun:-[NSUserDefaults(NSUserDefaults) init]
   fun:+[NSUserDefaults(NSUserDefaults) standardUserDefaults]
   fun:+[NSApplication initialize]
   fun:_objc_addWillInitializeClassFunc
   fun:_ZN13list_array_ttI8method_t13method_list_t24method_list_t_authed_ptrE11attachListsEPKPS1_j
   fun:_ZL24realizeClassWithoutSwiftP10objc_classS0_
}
{
   <insert_a_suppression_name_here>
   Memcheck:Leak
   match-leak-kinds: reachable
   fun:calloc
   fun:objc_msgSend_stret
   fun:__CFGetConverter
   fun:parseXMLElement
   fun:-[NSProcessInfo arguments]
   fun:-[NSUserDefaults(NSUserDefaults) init]
   fun:+[NSUserDefaults(NSUserDefaults) standardUserDefaults]
   fun:+[NSApplication initialize]
   fun:_objc_addWillInitializeClassFunc
   fun:_ZN13list_array_ttI8method_t13method_list_t24method_list_t_authed_ptrE11attachListsEPKPS1_j
   fun:_ZL24realizeClassWithoutSwiftP10objc_classS0_
   fun:-[NSObject dealloc]
}
{
   <insert_a_suppression_name_here>
   Memcheck:Leak
   match-leak-kinds: reachable
   fun:calloc
   fun:mdict_rehashd
   fun:CFArrayGetValues
   fun:-[CFPrefsSource alreadylocked_copyKeyList]
   fun:-[CFPrefsSource replaceAllValuesWithValues:forKeys:count:from:]
   fun:-[CFPrefsSource replaceAllValuesWithValues:forKeys:count:from:]
   fun:-[CFPrefsSource replaceAllValuesWithValues:forKeys:count:from:]
   fun:-[CFPrefsSource replaceAllValuesWithValues:forKeys:count:from:]
   fun:_CFPrefsGetCacheStringForBundleID
   fun:-[NSUserDefaults(NSUserDefaults) init]
   fun:+[NSUserDefaults(NSUserDefaults) standardUserDefaults]
   fun:+[NSApplication initialize]
}
{
   <insert_a_suppression_name_here>
   Memcheck:Leak
   match-leak-kinds: reachable
   fun:calloc
   fun:objc_msgSend_stret
   fun:__CFGetConverter
   fun:parseXMLElement
   fun:-[_CFXPreferences(SourceAdditions) withSourceForIdentifier:user:byHost:container:cloud:perform:]
   fun:__CFStringAppendFormatCore
   fun:__CFStringAppendFormatCore
   fun:__108-[_CFXPreferences(SearchListAdditions) withSearchListForIdentifier:container:cloudConfigurationURL:perform:]_block_invoke.249
   fun:__CFStringAppendFormatCore
   fun:__CFStringAppendFormatCore
   fun:-[CFPrefsSearchListSource addManagedSourceForIdentifier:user:]
   fun:__108-[_CFXPreferences(SearchListAdditions) withSearchListForIdentifier:container:cloudConfigurationURL:perform:]_block_invoke
}
{
   <insert_a_suppression_name_here>
   Memcheck:Leak
   match-leak-kinds: reachable
   fun:calloc
   fun:mdict_rehashd
   fun:_CFGetFileProperties
   fun:-[CFPrefsSearchListSource copyCloudConfigurationWithURL:outConfigFileSource:outStoreName:]
   fun:_CFPrefsExtractQuadrupleFromPathIfPossible
   fun:_CFPrefsExtractQuadrupleFromPathIfPossible
   fun:__destroy_helper_block_e8_32o40r48r
   fun:__CFStringAppendFormatCore
   fun:__CFStringAppendFormatCore
   fun:-[CFPrefsSearchListSource addManagedSourceForIdentifier:user:]
   fun:__108-[_CFXPreferences(SearchListAdditions) withSearchListForIdentifier:container:cloudConfigurationURL:perform:]_block_invoke
   fun:__108-[_CFXPreferences(SearchListAdditions) withSearchListForIdentifier:container:cloudConfigurationURL:perform:]_block_invoke
}
{
   <insert_a_suppression_name_here>
   Memcheck:Leak
   match-leak-kinds: reachable
   fun:calloc
   fun:mdict_rehashd
   fun:-[CFPrefsSearchListSource alreadylocked_generationCountFromListOfSources:count:]
   fun:-[CFPrefsSearchListSource alreadylocked_getDictionary:]
   fun:-[CFPrefsSearchListSource alreadylocked_copyValueForKey:]
   fun:-[_CFXPreferences(SearchListAdditions) assertEquivalence:ofIdentifiers:containers:cloudConfigurationURLs:]
   fun:__CFStringAppendFormatCore
   fun:__CFStringAppendFormatCore
   fun:-[CFPrefsSearchListSource addManagedSourceForIdentifier:user:]
   fun:__108-[_CFXPreferences(SearchListAdditions) withSearchListForIdentifier:container:cloudConfigurationURL:perform:]_block_invoke
   fun:__108-[_CFXPreferences(SearchListAdditions) withSearchListForIdentifier:container:cloudConfigurationURL:perform:]_block_invoke
   fun:-[NSUserDefaults(NSUserDefaults) init]
}
{
   <insert_a_suppression_name_here>
   Memcheck:Leak
   match-leak-kinds: reachable
   fun:calloc
   fun:objc_msgSend_stret
   fun:_os_object_alloc_realized
   fun:xpc_array_create
   fun:-[CFPrefsPlistSource createSynchronizeMessage]
   fun:__isOnDirectModeBlackList_block_invoke
   fun:-[CFPrefsPlistSource createRequestNewContentMessageForDaemon:]
   fun:generationCountFromListOfSources
   fun:-[CFPrefsSearchListSource alreadylocked_generationCountFromListOfSources:count:]
   fun:-[CFPrefsSearchListSource alreadylocked_generationCountFromListOfSources:count:]
   fun:__CFStringAppendFormatCore
   fun:-[CFPrefsSearchListSource addManagedSourceForIdentifier:user:]
}
{
   <insert_a_suppression_name_here>
   Memcheck:Leak
   match-leak-kinds: reachable
   fun:calloc
   fun:objc_msgSend_stret
   fun:_os_object_alloc_realized
   fun:xpc_array_create
   fun:-[CFPrefsPlistSource createSynchronizeMessage]
   fun:__isOnDirectModeBlackList_block_invoke
   fun:-[CFPrefsPlistSource createRequestNewContentMessageForDaemon:]
   fun:generationCountFromListOfSources
   fun:-[CFPrefsSearchListSource alreadylocked_generationCountFromListOfSources:count:]
   fun:-[CFPrefsSearchListSource alreadylocked_generationCountFromListOfSources:count:]
   fun:__CFStringAppendFormatCore
   fun:-[CFPrefsSearchListSource addManagedSourceForIdentifier:user:]
}
{
   <insert_a_suppression_name_here>
   Memcheck:Leak
   match-leak-kinds: reachable
   fun:malloc
   fun:_xpc_malloc
   fun:_xpc_dictionary_insert
   fun:xpc_dictionary_set_uint64
   fun:_xpc_interface_routine
   fun:vproc_swap_complex
   fun:vproc_swap_string
   fun:-[CFPrefsPlistSource handleReply:toRequestNewDataMessage:onConnection:retryCount:error:]
   fun:_dispatch_client_callout
   fun:_dispatch_once_callout
   fun:-[CFPrefsPlistSource handleReply:toRequestNewDataMessage:onConnection:retryCount:error:]
   fun:-[CFPrefsPlistSource handleReply:toRequestNewDataMessage:onConnection:retryCount:error:]
}
{
   <insert_a_suppression_name_here>
   Memcheck:Leak
   match-leak-kinds: reachable
   fun:malloc
   fun:strdup
   fun:xpc_string_create
   fun:xpc_dictionary_set_string
   fun:-[CFPrefsSearchListSource synchronouslySendDaemonMessage:andAgentMessage:andDirectMessage:replyHandler:]
   fun:-[_CFXPreferences currentUserHasInvalidHomeDirectory]
   fun:_CFPrefsEncodeValueIntoMessage
   fun:-[CFPrefsPlistSource createSynchronizeMessage]
   fun:-[CFPrefsPlistSource volatilizeIfInvalidHomeDir]
   fun:__isOnDirectModeBlackList_block_invoke
   fun:-[CFPrefsPlistSource createRequestNewContentMessageForDaemon:]
   fun:generationCountFromListOfSources
}
{
   <insert_a_suppression_name_here>
   Memcheck:Leak
   match-leak-kinds: possible
   fun:calloc
   fun:_ZL33realizeClassMaybeSwiftMaybeRelockP10objc_classR8mutex_ttILb0EEb
   fun:_ZL32adjustCustomFlagsForMethodChangeP10objc_classP8method_t
   fun:_ZL32adjustCustomFlagsForMethodChangeP10objc_classP8method_t
   fun:_ZL16attachCategoriesP10objc_classPK21locstamped_category_tji
   fun:_ZN10objc_class11mangledNameEv
   fun:_ZL16addRemappedClassP10objc_classS0_
   fun:objc_initializeClassPair
   fun:objc_registerClassPair
   fun:__CFStringCreateImmutableFunnel3
   fun:__CFInitialize
   fun:_ZN16ImageLoaderMachO11doImageInitERKN11ImageLoader11LinkContextE
}
{
   <insert_a_suppression_name_here>
   Memcheck:Leak
   match-leak-kinds: possible
   fun:calloc
   fun:_ZL33realizeClassMaybeSwiftMaybeRelockP10objc_classR8mutex_ttILb0EEb
   fun:_ZL32adjustCustomFlagsForMethodChangeP10objc_classP8method_t
   fun:_ZL32adjustCustomFlagsForMethodChangeP10objc_classP8method_t
   fun:_ZL16attachCategoriesP10objc_classPK21locstamped_category_tji
   fun:_ZL16addRemappedClassP10objc_classS0_
   fun:objc_initializeClassPair
   fun:objc_registerClassPair
   fun:__CFStringCreateImmutableFunnel3
   fun:__CFInitialize
   fun:_ZN16ImageLoaderMachO11doImageInitERKN11ImageLoader11LinkContextE
   fun:_ZN16ImageLoaderMachO16doInitializationERKN11ImageLoader11LinkContextE
}
{
   <insert_a_suppression_name_here>
   Memcheck:Leak
   match-leak-kinds: possible
   fun:calloc
   fun:_ZL33realizeClassMaybeSwiftMaybeRelockP10objc_classR8mutex_ttILb0EEb
   fun:_ZL32adjustCustomFlagsForMethodChangeP10objc_classP8method_t
   fun:_ZL32adjustCustomFlagsForMethodChangeP10objc_classP8method_t
   fun:_ZL16attachCategoriesP10objc_classPK21locstamped_category_tji
   fun:_ZN10objc_class11mangledNameEv
   fun:_ZN10objc_class11mangledNameEv
   fun:_ZL16addRemappedClassP10objc_classS0_
   fun:objc_initializeClassPair
   fun:objc_registerClassPair
   fun:__CFStringCreateImmutableFunnel3
   fun:__CFInitialize
}
{
   <insert_a_suppression_name_here>
   Memcheck:Leak
   match-leak-kinds: possible
   fun:calloc
   fun:_ZL33realizeClassMaybeSwiftMaybeRelockP10objc_classR8mutex_ttILb0EEb
   fun:_ZL32adjustCustomFlagsForMethodChangeP10objc_classP8method_t
   fun:_ZL32adjustCustomFlagsForMethodChangeP10objc_classP8method_t
   fun:_ZL16attachCategoriesP10objc_classPK21locstamped_category_tji
   fun:_ZN10objc_class11mangledNameEv
   fun:_ZN10objc_class11mangledNameEv
   fun:_ZL16addRemappedClassP10objc_classS0_
   fun:objc_initializeClassPair
   fun:objc_registerClassPair
   fun:__CFStringCreateImmutableFunnel3
   fun:__CFInitialize
}
{
   <insert_a_suppression_name_here>
   Memcheck:Leak
   match-leak-kinds: possible
   fun:calloc
   fun:_ZL33realizeClassMaybeSwiftMaybeRelockP10objc_classR8mutex_ttILb0EEb
   fun:_ZL32adjustCustomFlagsForMethodChangeP10objc_classP8method_t
   fun:_ZL32adjustCustomFlagsForMethodChangeP10objc_classP8method_t
   fun:_ZL16attachCategoriesP10objc_classPK21locstamped_category_tji
   fun:_ZN10objc_class11mangledNameEv
   fun:_ZL16addRemappedClassP10objc_classS0_
   fun:objc_initializeClassPair
   fun:objc_registerClassPair
   fun:__CFStringCreateImmutableFunnel3
   fun:__CFInitialize
   fun:_ZN16ImageLoaderMachO11doImageInitERKN11ImageLoader11LinkContextE
}
{
   <insert_a_suppression_name_here>
   Memcheck:Leak
   match-leak-kinds: possible
   fun:calloc
   fun:_ZL33realizeClassMaybeSwiftMaybeRelockP10objc_classR8mutex_ttILb0EEb
   fun:_ZL32adjustCustomFlagsForMethodChangeP10objc_classP8method_t
   fun:_ZL32adjustCustomFlagsForMethodChangeP10objc_classP8method_t
   fun:_ZL16attachCategoriesP10objc_classPK21locstamped_category_tji
   fun:_ZN10objc_class11mangledNameEv
   fun:_ZL16addRemappedClassP10objc_classS0_
   fun:objc_initializeClassPair
   fun:objc_registerClassPair
   fun:__CFStringCreateImmutableFunnel3
   fun:__CFInitialize
   fun:_ZN16ImageLoaderMachO11doImageInitERKN11ImageLoader11LinkContextE
}
{
   <insert_a_suppression_name_here>
   Memcheck:Leak
   match-leak-kinds: possible
   fun:calloc
   fun:_ZL33realizeClassMaybeSwiftMaybeRelockP10objc_classR8mutex_ttILb0EEb
   fun:_ZL32adjustCustomFlagsForMethodChangeP10objc_classP8method_t
   fun:_ZL32adjustCustomFlagsForMethodChangeP10objc_classP8method_t
   fun:_ZL16attachCategoriesP10objc_classPK21locstamped_category_tji
   fun:_ZL16addRemappedClassP10objc_classS0_
   fun:objc_initializeClassPair
   fun:objc_registerClassPair
   fun:__CFStringCreateImmutableFunnel3
   fun:__CFInitialize
   fun:_ZN16ImageLoaderMachO11doImageInitERKN11ImageLoader11LinkContextE
   fun:_ZN16ImageLoaderMachO16doInitializationERKN11ImageLoader11LinkContextE
}
{
   <insert_a_suppression_name_here>
   Memcheck:Leak
   match-leak-kinds: possible
   fun:calloc
   fun:_ZL33realizeClassMaybeSwiftMaybeRelockP10objc_classR8mutex_ttILb0EEb
   fun:_ZL32adjustCustomFlagsForMethodChangeP10objc_classP8method_t
   fun:_ZL32adjustCustomFlagsForMethodChangeP10objc_classP8method_t
   fun:_ZL16attachCategoriesP10objc_classPK21locstamped_category_tji
   fun:_ZN10objc_class11mangledNameEv
   fun:_ZN10objc_class11mangledNameEv
   fun:_ZL16addRemappedClassP10objc_classS0_
   fun:objc_initializeClassPair
   fun:objc_registerClassPair
   fun:__CFStringCreateImmutableFunnel3
   fun:__CFInitializeLinkCheck
}
{
   <insert_a_suppression_name_here>
   Memcheck:Leak
   match-leak-kinds: possible
   fun:calloc
   fun:_ZL33realizeClassMaybeSwiftMaybeRelockP10objc_classR8mutex_ttILb0EEb
   fun:_ZL32adjustCustomFlagsForMethodChangeP10objc_classP8method_t
   fun:_ZL32adjustCustomFlagsForMethodChangeP10objc_classP8method_t
   fun:_ZL16attachCategoriesP10objc_classPK21locstamped_category_tji
   fun:_ZN10objc_class11mangledNameEv
   fun:_ZL16addRemappedClassP10objc_classS0_
   fun:objc_initializeClassPair
   fun:objc_registerClassPair
   fun:__CFStringCreateImmutableFunnel3
   fun:__CFInitializeLinkCheck
   fun:_ZN16ImageLoaderMachO11doImageInitERKN11ImageLoader11LinkContextE
}
{
   <insert_a_suppression_name_here>
   Memcheck:Leak
   match-leak-kinds: possible
   fun:calloc
   fun:_ZL33realizeClassMaybeSwiftMaybeRelockP10objc_classR8mutex_ttILb0EEb
   fun:_ZL32adjustCustomFlagsForMethodChangeP10objc_classP8method_t
   fun:_ZL32adjustCustomFlagsForMethodChangeP10objc_classP8method_t
   fun:_ZL16attachCategoriesP10objc_classPK21locstamped_category_tji
   fun:_ZN10objc_class11mangledNameEv
   fun:_ZN10objc_class11mangledNameEv
   fun:_ZL16addRemappedClassP10objc_classS0_
   fun:objc_initializeClassPair
   fun:objc_registerClassPair
   fun:__CFStringCreateImmutableFunnel3
   fun:__CFInitializeLinkCheck
}
{
   <insert_a_suppression_name_here>
   Memcheck:Leak
   match-leak-kinds: possible
   fun:calloc
   fun:_ZL33realizeClassMaybeSwiftMaybeRelockP10objc_classR8mutex_ttILb0EEb
   fun:_ZL32adjustCustomFlagsForMethodChangeP10objc_classP8method_t
   fun:_ZL32adjustCustomFlagsForMethodChangeP10objc_classP8method_t
   fun:_ZL16attachCategoriesP10objc_classPK21locstamped_category_tji
   fun:_ZN10objc_class11mangledNameEv
   fun:_ZL16addRemappedClassP10objc_classS0_
   fun:objc_initializeClassPair
   fun:objc_registerClassPair
   fun:__CFStringCreateImmutableFunnel3
   fun:__CFInitializeLinkCheck
   fun:_ZN16ImageLoaderMachO11doImageInitERKN11ImageLoader11LinkContextE
}
{
   <insert_a_suppression_name_here>
   Memcheck:Leak
   match-leak-kinds: possible
   fun:calloc
   fun:_ZL33realizeClassMaybeSwiftMaybeRelockP10objc_classR8mutex_ttILb0EEb
   fun:_ZL32adjustCustomFlagsForMethodChangeP10objc_classP8method_t
   fun:_ZL32adjustCustomFlagsForMethodChangeP10objc_classP8method_t
   fun:_ZL16attachCategoriesP10objc_classPK21locstamped_category_tji
   fun:_ZN10objc_class11mangledNameEv
   fun:_ZL16addRemappedClassP10objc_classS0_
   fun:objc_initializeClassPair
   fun:objc_registerClassPair
   fun:__CFStringCreateImmutableFunnel3
   fun:__CFInitializeLinkCheck
   fun:_ZN16ImageLoaderMachO11doImageInitERKN11ImageLoader11LinkContextE
}
{
   <insert_a_suppression_name_here>
   Memcheck:Leak
   match-leak-kinds: possible
   fun:calloc
   fun:_ZL33realizeClassMaybeSwiftMaybeRelockP10objc_classR8mutex_ttILb0EEb
   fun:_ZL32adjustCustomFlagsForMethodChangeP10objc_classP8method_t
   fun:_ZL32adjustCustomFlagsForMethodChangeP10objc_classP8method_t
   fun:_ZL16attachCategoriesP10objc_classPK21locstamped_category_tji
   fun:_ZN10objc_class11mangledNameEv
   fun:_ZN10objc_class11mangledNameEv
   fun:_ZL16addRemappedClassP10objc_classS0_
   fun:objc_initializeClassPair
   fun:objc_registerClassPair
   fun:__CFStringCreateImmutableFunnel3
   fun:__CFInitializeLinkCheck
}
{
   <insert_a_suppression_name_here>
   Memcheck:Leak
   match-leak-kinds: possible
   fun:calloc
   fun:_ZL33realizeClassMaybeSwiftMaybeRelockP10objc_classR8mutex_ttILb0EEb
   fun:_ZL32adjustCustomFlagsForMethodChangeP10objc_classP8method_t
   fun:_ZL32adjustCustomFlagsForMethodChangeP10objc_classP8method_t
   fun:_ZL16attachCategoriesP10objc_classPK21locstamped_category_tji
   fun:_ZN10objc_class11mangledNameEv
   fun:_ZN10objc_class11mangledNameEv
   fun:_ZL16addRemappedClassP10objc_classS0_
   fun:objc_initializeClassPair
   fun:objc_registerClassPair
   fun:__CFStringCreateImmutableFunnel3
   fun:__CFInitializeLinkCheck
}
{
   <insert_a_suppression_name_here>
   Memcheck:Leak
   match-leak-kinds: possible
   fun:calloc
   fun:_ZL33realizeClassMaybeSwiftMaybeRelockP10objc_classR8mutex_ttILb0EEb
   fun:_ZL32adjustCustomFlagsForMethodChangeP10objc_classP8method_t
   fun:_ZL32adjustCustomFlagsForMethodChangeP10objc_classP8method_t
   fun:_ZL16attachCategoriesP10objc_classPK21locstamped_category_tji
   fun:_ZN10objc_class11mangledNameEv
   fun:_ZL16addRemappedClassP10objc_classS0_
   fun:objc_initializeClassPair
   fun:objc_registerClassPair
   fun:__CFStringCreateImmutableFunnel3
   fun:__CFInitializeLinkCheck
   fun:_ZN16ImageLoaderMachO11doImageInitERKN11ImageLoader11LinkContextE
}
{
   <insert_a_suppression_name_here>
   Memcheck:Leak
   match-leak-kinds: possible
   fun:calloc
   fun:_ZL33realizeClassMaybeSwiftMaybeRelockP10objc_classR8mutex_ttILb0EEb
   fun:_ZL32adjustCustomFlagsForMethodChangeP10objc_classP8method_t
   fun:_ZL32adjustCustomFlagsForMethodChangeP10objc_classP8method_t
   fun:_ZL16attachCategoriesP10objc_classPK21locstamped_category_tji
   fun:_ZN10objc_class11mangledNameEv
   fun:_ZN10objc_class11mangledNameEv
   fun:_ZL16addRemappedClassP10objc_classS0_
   fun:objc_initializeClassPair
   fun:objc_registerClassPair
   fun:__CFStringCreateImmutableFunnel3
   fun:__CFInitializeLinkCheck
}
{
   <insert_a_suppression_name_here>
   Memcheck:Leak
   match-leak-kinds: possible
   fun:calloc
   fun:_ZL33realizeClassMaybeSwiftMaybeRelockP10objc_classR8mutex_ttILb0EEb
   fun:_ZL32adjustCustomFlagsForMethodChangeP10objc_classP8method_t
   fun:_ZL32adjustCustomFlagsForMethodChangeP10objc_classP8method_t
   fun:_ZL16attachCategoriesP10objc_classPK21locstamped_category_tji
   fun:_ZN10objc_class11mangledNameEv
   fun:_ZL16addRemappedClassP10objc_classS0_
   fun:objc_initializeClassPair
   fun:objc_registerClassPair
   fun:__CFStringCreateImmutableFunnel3
   fun:__CFInitializeLinkCheck
   fun:_ZN16ImageLoaderMachO11doImageInitERKN11ImageLoader11LinkContextE
}
{
   <insert_a_suppression_name_here>
   Memcheck:Leak
   match-leak-kinds: possible
   fun:calloc
   fun:_ZL33realizeClassMaybeSwiftMaybeRelockP10objc_classR8mutex_ttILb0EEb
   fun:_ZL32adjustCustomFlagsForMethodChangeP10objc_classP8method_t
   fun:_ZL32adjustCustomFlagsForMethodChangeP10objc_classP8method_t
   fun:_ZL16attachCategoriesP10objc_classPK21locstamped_category_tji
   fun:_ZN10objc_class11mangledNameEv
   fun:_ZN10objc_class11mangledNameEv
   fun:_ZL16addRemappedClassP10objc_classS0_
   fun:objc_initializeClassPair
   fun:_NSToDoAtProcessStart
   fun:_NSInitializePlatform
   fun:objc_msgLookup_fpret
}
{
   <insert_a_suppression_name_here>
   Memcheck:Leak
   match-leak-kinds: possible
   fun:calloc
   fun:_ZL33realizeClassMaybeSwiftMaybeRelockP10objc_classR8mutex_ttILb0EEb
   fun:_ZL32adjustCustomFlagsForMethodChangeP10objc_classP8method_t
   fun:_ZL32adjustCustomFlagsForMethodChangeP10objc_classP8method_t
   fun:_ZL16attachCategoriesP10objc_classPK21locstamped_category_tji
   fun:_ZN10objc_class11mangledNameEv
   fun:_ZL16addRemappedClassP10objc_classS0_
   fun:objc_initializeClassPair
   fun:_NSToDoAtProcessStart
   fun:_NSInitializePlatform
   fun:objc_msgLookup_fpret
   fun:_ZN4dyldL12notifySingleE17dyld_image_statesPK11ImageLoaderPNS1_21InitializerTimingListE
}
{
   <insert_a_suppression_name_here>
   Memcheck:Leak
   match-leak-kinds: possible
   fun:calloc
   fun:_ZL33realizeClassMaybeSwiftMaybeRelockP10objc_classR8mutex_ttILb0EEb
   fun:_ZL32adjustCustomFlagsForMethodChangeP10objc_classP8method_t
   fun:_ZL32adjustCustomFlagsForMethodChangeP10objc_classP8method_t
   fun:_ZL16attachCategoriesP10objc_classPK21locstamped_category_tji
   fun:_ZL16addRemappedClassP10objc_classS0_
   fun:objc_initializeClassPair
   fun:_NSToDoAtProcessStart
   fun:_NSInitializePlatform
   fun:objc_msgLookup_fpret
   fun:_ZN4dyldL12notifySingleE17dyld_image_statesPK11ImageLoaderPNS1_21InitializerTimingListE
   fun:_ZN11ImageLoader23recursiveInitializationERKNS_11LinkContextEjPKcRNS_21InitializerTimingListERNS_15UninitedUpwardsE
}
{
   <insert_a_suppression_name_here>
   Memcheck:Leak
   match-leak-kinds: possible
   fun:calloc
   fun:_ZL33realizeClassMaybeSwiftMaybeRelockP10objc_classR8mutex_ttILb0EEb
   fun:_ZL32adjustCustomFlagsForMethodChangeP10objc_classP8method_t
   fun:_ZL32adjustCustomFlagsForMethodChangeP10objc_classP8method_t
   fun:_ZL16attachCategoriesP10objc_classPK21locstamped_category_tji
   fun:_ZN10objc_class11mangledNameEv
   fun:_ZL16addRemappedClassP10objc_classS0_
   fun:objc_initializeClassPair
   fun:_NSToDoAtProcessStart
   fun:_NSInitializePlatform
   fun:objc_msgLookup_fpret
   fun:_ZN4dyldL12notifySingleE17dyld_image_statesPK11ImageLoaderPNS1_21InitializerTimingListE
}
{
   <insert_a_suppression_name_here>
   Memcheck:Leak
   match-leak-kinds: possible
   fun:calloc
   fun:_ZL33realizeClassMaybeSwiftMaybeRelockP10objc_classR8mutex_ttILb0EEb
   fun:_ZL32adjustCustomFlagsForMethodChangeP10objc_classP8method_t
   fun:_ZL32adjustCustomFlagsForMethodChangeP10objc_classP8method_t
   fun:_ZL16attachCategoriesP10objc_classPK21locstamped_category_tji
   fun:_ZL16addRemappedClassP10objc_classS0_
   fun:objc_initializeClassPair
   fun:_NSToDoAtProcessStart
   fun:_NSInitializePlatform
   fun:objc_msgLookup_fpret
   fun:_ZN4dyldL12notifySingleE17dyld_image_statesPK11ImageLoaderPNS1_21InitializerTimingListE
   fun:_ZN11ImageLoader23recursiveInitializationERKNS_11LinkContextEjPKcRNS_21InitializerTimingListERNS_15UninitedUpwardsE
}
{
   <insert_a_suppression_name_here>
   Memcheck:Leak
   match-leak-kinds: possible
   fun:calloc
   fun:_ZL33realizeClassMaybeSwiftMaybeRelockP10objc_classR8mutex_ttILb0EEb
   fun:_ZL32adjustCustomFlagsForMethodChangeP10objc_classP8method_t
   fun:_ZL32adjustCustomFlagsForMethodChangeP10objc_classP8method_t
   fun:_ZL16attachCategoriesP10objc_classPK21locstamped_category_tji
   fun:_ZN10objc_class11mangledNameEv
   fun:_ZN10objc_class11mangledNameEv
   fun:_ZL16addRemappedClassP10objc_classS0_
   fun:objc_initializeClassPair
   fun:_NSToDoAtProcessStart
   fun:_NSInitializePlatform
   fun:objc_msgLookup_fpret
}
{
   <insert_a_suppression_name_here>
   Memcheck:Leak
   match-leak-kinds: possible
   fun:calloc
   fun:_ZL33realizeClassMaybeSwiftMaybeRelockP10objc_classR8mutex_ttILb0EEb
   fun:_ZL32adjustCustomFlagsForMethodChangeP10objc_classP8method_t
   fun:_ZL32adjustCustomFlagsForMethodChangeP10objc_classP8method_t
   fun:_ZL16attachCategoriesP10objc_classPK21locstamped_category_tji
   fun:_ZN10objc_class11mangledNameEv
   fun:_ZL16addRemappedClassP10objc_classS0_
   fun:objc_initializeClassPair
   fun:_NSToDoAtProcessStart
   fun:_NSInitializePlatform
   fun:objc_msgLookup_fpret
   fun:_ZN4dyldL12notifySingleE17dyld_image_statesPK11ImageLoaderPNS1_21InitializerTimingListE
}
{
   <insert_a_suppression_name_here>
   Memcheck:Leak
   match-leak-kinds: possible
   fun:malloc
   fun:_ZL24realizeClassWithoutSwiftP10objc_classS0_
   fun:_ZL32adjustCustomFlagsForMethodChangeP10objc_classP8method_t
   fun:_ZL32adjustCustomFlagsForMethodChangeP10objc_classP8method_t
   fun:_ZL16attachCategoriesP10objc_classPK21locstamped_category_tji
   fun:_ZN10objc_class11mangledNameEv
   fun:_ZL16addRemappedClassP10objc_classS0_
   fun:objc_initializeClassPair
   fun:_NSToDoAtProcessStart
   fun:_NSInitializePlatform
   fun:objc_msgLookup_fpret
   fun:_ZN4dyldL12notifySingleE17dyld_image_statesPK11ImageLoaderPNS1_21InitializerTimingListE
}
{
   <insert_a_suppression_name_here>
   Memcheck:Leak
   match-leak-kinds: possible
   fun:calloc
   fun:_ZL33realizeClassMaybeSwiftMaybeRelockP10objc_classR8mutex_ttILb0EEb
   fun:_ZL32adjustCustomFlagsForMethodChangeP10objc_classP8method_t
   fun:_ZL32adjustCustomFlagsForMethodChangeP10objc_classP8method_t
   fun:_ZL16attachCategoriesP10objc_classPK21locstamped_category_tji
   fun:_ZL16addRemappedClassP10objc_classS0_
   fun:objc_initializeClassPair
   fun:_NSToDoAtProcessStart
   fun:_NSInitializePlatform
   fun:objc_msgLookup_fpret
   fun:_ZN4dyldL12notifySingleE17dyld_image_statesPK11ImageLoaderPNS1_21InitializerTimingListE
   fun:_ZN11ImageLoader23recursiveInitializationERKNS_11LinkContextEjPKcRNS_21InitializerTimingListERNS_15UninitedUpwardsE
}
{
   <insert_a_suppression_name_here>
   Memcheck:Leak
   match-leak-kinds: possible
   fun:calloc
   fun:_ZL33realizeClassMaybeSwiftMaybeRelockP10objc_classR8mutex_ttILb0EEb
   fun:weak_register_no_lock
   fun:_NSToDoAtProcessStart
   fun:_NSInitializePlatform
   fun:objc_msgLookup_fpret
   fun:_ZN4dyldL12notifySingleE17dyld_image_statesPK11ImageLoaderPNS1_21InitializerTimingListE
   fun:_ZN11ImageLoader23recursiveInitializationERKNS_11LinkContextEjPKcRNS_21InitializerTimingListERNS_15UninitedUpwardsE
   fun:_ZN11ImageLoader23recursiveInitializationERKNS_11LinkContextEjPKcRNS_21InitializerTimingListERNS_15UninitedUpwardsE
   fun:_ZN11ImageLoader23recursiveInitializationERKNS_11LinkContextEjPKcRNS_21InitializerTimingListERNS_15UninitedUpwardsE
   fun:_ZN11ImageLoader23recursiveInitializationERKNS_11LinkContextEjPKcRNS_21InitializerTimingListERNS_15UninitedUpwardsE
   fun:_ZN11ImageLoader23recursiveInitializationERKNS_11LinkContextEjPKcRNS_21InitializerTimingListERNS_15UninitedUpwardsE
}
{
   <insert_a_suppression_name_here>
   Memcheck:Leak
   match-leak-kinds: possible
   fun:calloc
   fun:_ZL33realizeClassMaybeSwiftMaybeRelockP10objc_classR8mutex_ttILb0EEb
   fun:_ZL32adjustCustomFlagsForMethodChangeP10objc_classP8method_t
   fun:_ZL32adjustCustomFlagsForMethodChangeP10objc_classP8method_t
   fun:_ZL16attachCategoriesP10objc_classPK21locstamped_category_tji
   fun:_ZN10objc_class11mangledNameEv
   fun:_ZL16addRemappedClassP10objc_classS0_
   fun:objc_initializeClassPair
   fun:_NSToDoAtProcessStart
   fun:_NSInitializePlatform
   fun:objc_msgLookup_fpret
   fun:_ZN4dyldL12notifySingleE17dyld_image_statesPK11ImageLoaderPNS1_21InitializerTimingListE
}
{
   <insert_a_suppression_name_here>
   Memcheck:Leak
   match-leak-kinds: possible
   fun:calloc
   fun:_ZL33realizeClassMaybeSwiftMaybeRelockP10objc_classR8mutex_ttILb0EEb
   fun:weak_register_no_lock
   fun:_NSToDoAtProcessStart
   fun:_NSInitializePlatform
   fun:objc_msgLookup_fpret
   fun:_ZN4dyldL12notifySingleE17dyld_image_statesPK11ImageLoaderPNS1_21InitializerTimingListE
   fun:_ZN11ImageLoader23recursiveInitializationERKNS_11LinkContextEjPKcRNS_21InitializerTimingListERNS_15UninitedUpwardsE
   fun:_ZN11ImageLoader23recursiveInitializationERKNS_11LinkContextEjPKcRNS_21InitializerTimingListERNS_15UninitedUpwardsE
   fun:_ZN11ImageLoader23recursiveInitializationERKNS_11LinkContextEjPKcRNS_21InitializerTimingListERNS_15UninitedUpwardsE
   fun:_ZN11ImageLoader23recursiveInitializationERKNS_11LinkContextEjPKcRNS_21InitializerTimingListERNS_15UninitedUpwardsE
   fun:_ZN11ImageLoader23recursiveInitializationERKNS_11LinkContextEjPKcRNS_21InitializerTimingListERNS_15UninitedUpwardsE
}
{
   <insert_a_suppression_name_here>
   Memcheck:Leak
   match-leak-kinds: possible
   fun:calloc
   fun:_ZL33realizeClassMaybeSwiftMaybeRelockP10objc_classR8mutex_ttILb0EEb
   fun:weak_register_no_lock
   fun:_NSToDoAtProcessStart
   fun:_NSInitializePlatform
   fun:objc_msgLookup_fpret
   fun:_ZN4dyldL12notifySingleE17dyld_image_statesPK11ImageLoaderPNS1_21InitializerTimingListE
   fun:_ZN11ImageLoader23recursiveInitializationERKNS_11LinkContextEjPKcRNS_21InitializerTimingListERNS_15UninitedUpwardsE
   fun:_ZN11ImageLoader23recursiveInitializationERKNS_11LinkContextEjPKcRNS_21InitializerTimingListERNS_15UninitedUpwardsE
   fun:_ZN11ImageLoader23recursiveInitializationERKNS_11LinkContextEjPKcRNS_21InitializerTimingListERNS_15UninitedUpwardsE
   fun:_ZN11ImageLoader23recursiveInitializationERKNS_11LinkContextEjPKcRNS_21InitializerTimingListERNS_15UninitedUpwardsE
   fun:_ZN11ImageLoader23recursiveInitializationERKNS_11LinkContextEjPKcRNS_21InitializerTimingListERNS_15UninitedUpwardsE
}
{
   <insert_a_suppression_name_here>
   Memcheck:Leak
   match-leak-kinds: possible
   fun:calloc
   fun:_ZL33realizeClassMaybeSwiftMaybeRelockP10objc_classR8mutex_ttILb0EEb
   fun:_ZL32adjustCustomFlagsForMethodChangeP10objc_classP8method_t
   fun:_ZL32adjustCustomFlagsForMethodChangeP10objc_classP8method_t
   fun:_ZL16attachCategoriesP10objc_classPK21locstamped_category_tji
   fun:_ZN10objc_class11mangledNameEv
   fun:_ZL16addRemappedClassP10objc_classS0_
   fun:objc_initializeClassPair
   fun:_NSToDoAtProcessStart
   fun:_NSInitializePlatform
   fun:objc_msgLookup_fpret
   fun:_ZN4dyldL12notifySingleE17dyld_image_statesPK11ImageLoaderPNS1_21InitializerTimingListE
}
{
   <insert_a_suppression_name_here>
   Memcheck:Leak
   match-leak-kinds: possible
   fun:calloc
   fun:_ZL33realizeClassMaybeSwiftMaybeRelockP10objc_classR8mutex_ttILb0EEb
   fun:_ZL32adjustCustomFlagsForMethodChangeP10objc_classP8method_t
   fun:_ZL32adjustCustomFlagsForMethodChangeP10objc_classP8method_t
   fun:_ZL16attachCategoriesP10objc_classPK21locstamped_category_tji
   fun:_ZL16addRemappedClassP10objc_classS0_
   fun:objc_initializeClassPair
   fun:_NSToDoAtProcessStart
   fun:_NSInitializePlatform
   fun:objc_msgLookup_fpret
   fun:_ZN4dyldL12notifySingleE17dyld_image_statesPK11ImageLoaderPNS1_21InitializerTimingListE
   fun:_ZN11ImageLoader23recursiveInitializationERKNS_11LinkContextEjPKcRNS_21InitializerTimingListERNS_15UninitedUpwardsE
}
{
   <insert_a_suppression_name_here>
   Memcheck:Leak
   match-leak-kinds: possible
   fun:calloc
   fun:_ZL33realizeClassMaybeSwiftMaybeRelockP10objc_classR8mutex_ttILb0EEb
   fun:_ZL32adjustCustomFlagsForMethodChangeP10objc_classP8method_t
   fun:_ZL32adjustCustomFlagsForMethodChangeP10objc_classP8method_t
   fun:_ZL16attachCategoriesP10objc_classPK21locstamped_category_tji
   fun:_ZN10objc_class11mangledNameEv
   fun:objc_msgSendSuper2
   fun:_ZN4dyldL12notifySingleE17dyld_image_statesPK11ImageLoaderPNS1_21InitializerTimingListE
   fun:_ZN11ImageLoader23recursiveInitializationERKNS_11LinkContextEjPKcRNS_21InitializerTimingListERNS_15UninitedUpwardsE
   fun:_ZN11ImageLoader23recursiveInitializationERKNS_11LinkContextEjPKcRNS_21InitializerTimingListERNS_15UninitedUpwardsE
   fun:_ZN11ImageLoader23recursiveInitializationERKNS_11LinkContextEjPKcRNS_21InitializerTimingListERNS_15UninitedUpwardsE
   fun:_ZN11ImageLoader23recursiveInitializationERKNS_11LinkContextEjPKcRNS_21InitializerTimingListERNS_15UninitedUpwardsE
}
{
   <insert_a_suppression_name_here>
   Memcheck:Leak
   match-leak-kinds: possible
   fun:calloc
   fun:_ZL33realizeClassMaybeSwiftMaybeRelockP10objc_classR8mutex_ttILb0EEb
   fun:_ZL32adjustCustomFlagsForMethodChangeP10objc_classP8method_t
   fun:_ZL32adjustCustomFlagsForMethodChangeP10objc_classP8method_t
   fun:_ZL16attachCategoriesP10objc_classPK21locstamped_category_tji
   fun:objc_msgSendSuper2
   fun:_ZN4dyldL12notifySingleE17dyld_image_statesPK11ImageLoaderPNS1_21InitializerTimingListE
   fun:_ZN11ImageLoader23recursiveInitializationERKNS_11LinkContextEjPKcRNS_21InitializerTimingListERNS_15UninitedUpwardsE
   fun:_ZN11ImageLoader23recursiveInitializationERKNS_11LinkContextEjPKcRNS_21InitializerTimingListERNS_15UninitedUpwardsE
   fun:_ZN11ImageLoader23recursiveInitializationERKNS_11LinkContextEjPKcRNS_21InitializerTimingListERNS_15UninitedUpwardsE
   fun:_ZN11ImageLoader23recursiveInitializationERKNS_11LinkContextEjPKcRNS_21InitializerTimingListERNS_15UninitedUpwardsE
   fun:_ZN11ImageLoader23recursiveInitializationERKNS_11LinkContextEjPKcRNS_21InitializerTimingListERNS_15UninitedUpwardsE
}
{
   <insert_a_suppression_name_here>
   Memcheck:Leak
   match-leak-kinds: possible
   fun:malloc
   fun:_ZL24realizeClassWithoutSwiftP10objc_classS0_
   fun:_ZL32adjustCustomFlagsForMethodChangeP10objc_classP8method_t
   fun:property_copyAttributeValue
   fun:_ZL10free_classP10objc_class
   fun:objc_msgLookup
   fun:_ZN4dyldL12notifySingleE17dyld_image_statesPK11ImageLoaderPNS1_21InitializerTimingListE
   fun:_ZN11ImageLoader23recursiveInitializationERKNS_11LinkContextEjPKcRNS_21InitializerTimingListERNS_15UninitedUpwardsE
   fun:_ZN11ImageLoader19processInitializersERKNS_11LinkContextEjRNS_21InitializerTimingListERNS_15UninitedUpwardsE
   fun:_ZN11ImageLoader19processInitializersERKNS_11LinkContextEjRNS_21InitializerTimingListERNS_15UninitedUpwardsE
   fun:_ZN11ImageLoader15runInitializersERKNS_11LinkContextERNS_21InitializerTimingListE
   fun:_ZN4dyld24initializeMainExecutableEv
}
{
   <insert_a_suppression_name_here>
   Memcheck:Leak
   match-leak-kinds: possible
   fun:malloc
   fun:_ZL24realizeClassWithoutSwiftP10objc_classS0_
   fun:_ZL32adjustCustomFlagsForMethodChangeP10objc_classP8method_t
   fun:property_copyAttributeValue
   fun:_ZL10free_classP10objc_class
   fun:objc_msgLookup
   fun:_ZN4dyldL12notifySingleE17dyld_image_statesPK11ImageLoaderPNS1_21InitializerTimingListE
   fun:_ZN11ImageLoader23recursiveInitializationERKNS_11LinkContextEjPKcRNS_21InitializerTimingListERNS_15UninitedUpwardsE
   fun:_ZN11ImageLoader19processInitializersERKNS_11LinkContextEjRNS_21InitializerTimingListERNS_15UninitedUpwardsE
   fun:_ZN11ImageLoader19processInitializersERKNS_11LinkContextEjRNS_21InitializerTimingListERNS_15UninitedUpwardsE
   fun:_ZN11ImageLoader15runInitializersERKNS_11LinkContextERNS_21InitializerTimingListE
   fun:_ZN4dyld24initializeMainExecutableEv
}
{
   <insert_a_suppression_name_here>
   Memcheck:Leak
   match-leak-kinds: possible
   fun:malloc
   fun:_ZL24realizeClassWithoutSwiftP10objc_classS0_
   fun:_ZL32adjustCustomFlagsForMethodChangeP10objc_classP8method_t
   fun:property_copyAttributeValue
   fun:_ZL10free_classP10objc_class
   fun:objc_msgLookup
   fun:_ZN4dyldL12notifySingleE17dyld_image_statesPK11ImageLoaderPNS1_21InitializerTimingListE
   fun:_ZN11ImageLoader23recursiveInitializationERKNS_11LinkContextEjPKcRNS_21InitializerTimingListERNS_15UninitedUpwardsE
   fun:_ZN11ImageLoader19processInitializersERKNS_11LinkContextEjRNS_21InitializerTimingListERNS_15UninitedUpwardsE
   fun:_ZN11ImageLoader19processInitializersERKNS_11LinkContextEjRNS_21InitializerTimingListERNS_15UninitedUpwardsE
   fun:_ZN11ImageLoader15runInitializersERKNS_11LinkContextERNS_21InitializerTimingListE
   fun:_ZN4dyld24initializeMainExecutableEv
}
{
   <insert_a_suppression_name_here>
   Memcheck:Leak
   match-leak-kinds: reachable
   fun:malloc
   fun:_xpc_malloc
   fun:_xpc_dictionary_insert
   fun:xpc_dictionary_set_uint64
   fun:_xpc_interface_routine
   fun:vproc_swap_complex
   fun:vproc_swap_string
   fun:-[CFPrefsPlistSource handleReply:toRequestNewDataMessage:onConnection:retryCount:error:]
   fun:_dispatch_client_callout
   fun:_dispatch_once_callout
   fun:-[CFPrefsPlistSource handleReply:toRequestNewDataMessage:onConnection:retryCount:error:]
   fun:-[CFPrefsPlistSource handleReply:toRequestNewDataMessage:onConnection:retryCount:error:]
}
{
   <insert_a_suppression_name_here>
   Memcheck:Leak
   match-leak-kinds: reachable
   fun:malloc
   fun:_xpc_malloc
   fun:_xpc_dictionary_insert
   fun:xpc_dictionary_set_mach_send
   fun:_vproc_create_request
   fun:vproc_swap_complex
   fun:vproc_swap_string
   fun:-[CFPrefsPlistSource handleReply:toRequestNewDataMessage:onConnection:retryCount:error:]
   fun:_dispatch_client_callout
   fun:_dispatch_once_callout
   fun:-[CFPrefsPlistSource handleReply:toRequestNewDataMessage:onConnection:retryCount:error:]
   fun:-[CFPrefsPlistSource handleReply:toRequestNewDataMessage:onConnection:retryCount:error:]
}
{
   <insert_a_suppression_name_here>
   Memcheck:Leak
   match-leak-kinds: reachable
   fun:malloc_zone_malloc
   fun:__CFUniCharGetUnicodePropertyDataForPlane_block_invoke
   fun:__CFUniCharLoadBitmapData
   fun:CFUniCharDecomposeWithErrorLocation
   fun:_CFBundleCopyBundleURLForExecutableURL
   fun:CreateStringFromFileSystemRepresentationByAddingPercentEscapes
   fun:CreateStringFromFileSystemRepresentationByAddingPercentEscapes
   fun:_CFURLCreateWithFileSystemPath
   fun:CFURLGetString
   fun:CFURLCopyAbsoluteURL
   fun:CFStringFindWithOptionsAndLocale
   fun:-[CFPrefsSource alreadylocked_copyKeyList]
}
{
   <insert_a_suppression_name_here>
   Memcheck:Leak
   match-leak-kinds: reachable
   fun:calloc
   fun:_dispatch_calloc
   fun:_dispatch_unote_create
   fun:_dispatch_mach_create
   fun:_voucher_activity_debug_channel_init
   fun:_dispatch_kq_poll
   fun:_dispatch_kq_drain
   fun:_dispatch_kq_unote_update
   fun:_dispatch_source_install
   fun:_dispatch_source_activate
   fun:_dispatch_lane_resume_activate
   fun:_notify_fork_child
}
{
   <insert_a_suppression_name_here>
   Memcheck:Leak
   match-leak-kinds: possible
   fun:calloc
   fun:_notify_fork_child
   fun:_notify_fork_child
   fun:notify_register_check
   fun:__si_module_static_ds_block_invoke
   fun:_dispatch_client_callout
   fun:_dispatch_once_callout
   fun:si_module_static_ds
   fun:si_module_with_name
   fun:si_module_config_modules_for_category
   fun:__si_module_static_search_block_invoke
   fun:_dispatch_client_callout
}
{
   <insert_a_suppression_name_here>
   Memcheck:Leak
   match-leak-kinds: possible
   fun:calloc
   fun:_notify_fork_child
   fun:_notify_fork_child
   fun:notify_register_check
   fun:__si_module_static_ds_block_invoke
   fun:_dispatch_client_callout
   fun:_dispatch_once_callout
   fun:si_module_static_ds
   fun:si_module_with_name
   fun:si_module_config_modules_for_category
   fun:__si_module_static_search_block_invoke
   fun:_dispatch_client_callout
}
{
   <insert_a_suppression_name_here>
   Memcheck:Leak
   match-leak-kinds: possible
   fun:calloc
   fun:_notify_fork_child
   fun:_notify_fork_child
   fun:notify_register_check
   fun:__si_module_static_ds_block_invoke
   fun:_dispatch_client_callout
   fun:_dispatch_once_callout
   fun:si_module_static_ds
   fun:si_module_with_name
   fun:si_module_config_modules_for_category
   fun:__si_module_static_search_block_invoke
   fun:_dispatch_client_callout
}
{
   <insert_a_suppression_name_here>
   Memcheck:Leak
   match-leak-kinds: possible
   fun:calloc
   fun:_notify_fork_child
   fun:_notify_fork_child
   fun:notify_register_check
   fun:__si_module_static_ds_block_invoke
   fun:_dispatch_client_callout
   fun:_dispatch_once_callout
   fun:si_module_static_ds
   fun:si_module_with_name
   fun:si_module_config_modules_for_category
   fun:__si_module_static_search_block_invoke
   fun:_dispatch_client_callout
}
{
   <insert_a_suppression_name_here>
   Memcheck:Leak
   match-leak-kinds: possible
   fun:calloc
   fun:_notify_fork_child
   fun:_notify_fork_child
   fun:notify_register_check
   fun:_os_trace_prefs_and_mode_refresh_slow
   fun:_os_activity_create_addr
   fun:ds_user_byuid
   fun:si_user_byuid
   fun:search_item_bynumber
   fun:search_user_byuid
   fun:si_user_byuid
   fun:getpwuid_r
}
{
   <insert_a_suppression_name_here>
   Memcheck:Leak
   match-leak-kinds: possible
   fun:malloc
   fun:_ZL24realizeClassWithoutSwiftP10objc_classS0_
   fun:_ZL32adjustCustomFlagsForMethodChangeP10objc_classP8method_t
   fun:_ZL32adjustCustomFlagsForMethodChangeP10objc_classP8method_t
   fun:_ZL16attachCategoriesP10objc_classPK21locstamped_category_tji
   fun:_ZL16addRemappedClassP10objc_classS0_
   fun:objc_initializeClassPair
   fun:_NSToDoAtProcessStart
   fun:_NSInitializePlatform
   fun:objc_msgLookup_fpret
   fun:_ZN4dyldL12notifySingleE17dyld_image_statesPK11ImageLoaderPNS1_21InitializerTimingListE
   fun:_ZN11ImageLoader23recursiveInitializationERKNS_11LinkContextEjPKcRNS_21InitializerTimingListERNS_15UninitedUpwardsE
}
{
   <insert_a_suppression_name_here>
   Memcheck:Leak
   match-leak-kinds: possible
   fun:calloc
   fun:_notify_fork_child
   fun:notify_register_mach_port
   fun:notify_register_dispatch
   fun:__96-[_CFXPreferences(SourceAdditions) withSourceForIdentifier:user:byHost:container:cloud:perform:]_block_invoke.213
   fun:_dispatch_client_callout
   fun:_dispatch_once_callout
   fun:_CFPrefsExtractQuadrupleFromPathIfPossible
   fun:_CFPrefsExtractQuadrupleFromPathIfPossible
   fun:__destroy_helper_block_e8_32o40r48r
   fun:__CFStringAppendFormatCore
   fun:__CFStringAppendFormatCore
}
{
   <insert_a_suppression_name_here>
   Memcheck:Leak
   match-leak-kinds: reachable
   fun:malloc
   fun:_xpc_malloc
   fun:_xpc_dictionary_insert
   fun:-[_CFXPreferences _copyDaemonConnectionSettingUpIfNecessaryForRole:]
   fun:-[CFPrefsPlistSource createSynchronizeMessage]
   fun:__isOnDirectModeBlackList_block_invoke
   fun:-[CFPrefsPlistSource createRequestNewContentMessageForDaemon:]
   fun:generationCountFromListOfSources
   fun:-[CFPrefsSearchListSource alreadylocked_generationCountFromListOfSources:count:]
   fun:-[CFPrefsSearchListSource alreadylocked_generationCountFromListOfSources:count:]
   fun:__CFStringAppendFormatCore
   fun:-[CFPrefsSearchListSource addManagedSourceForIdentifier:user:]
}
{
   <insert_a_suppression_name_here>
   Memcheck:Leak
   match-leak-kinds: reachable
   fun:malloc
   fun:_xpc_malloc
   fun:_xpc_dictionary_insert
   fun:-[_CFXPreferences _copyDaemonConnectionSettingUpIfNecessaryForRole:]
   fun:-[CFPrefsPlistSource createSynchronizeMessage]
   fun:__isOnDirectModeBlackList_block_invoke
   fun:-[CFPrefsPlistSource createRequestNewContentMessageForDaemon:]
   fun:generationCountFromListOfSources
   fun:-[CFPrefsSearchListSource alreadylocked_generationCountFromListOfSources:count:]
   fun:-[CFPrefsSearchListSource alreadylocked_generationCountFromListOfSources:count:]
   fun:__CFStringAppendFormatCore
   fun:-[CFPrefsSearchListSource addManagedSourceForIdentifier:user:]
}
{
   <insert_a_suppression_name_here>
   Memcheck:Leak
   match-leak-kinds: reachable
   fun:malloc
   fun:_xpc_malloc
   fun:_xpc_dictionary_insert
   fun:xpc_dictionary_set_bool
   fun:-[_CFXPreferences currentUserHasInvalidHomeDirectory]
   fun:_CFPrefsEncodeValueIntoMessage
   fun:-[CFPrefsPlistSource createSynchronizeMessage]
   fun:-[CFPrefsPlistSource volatilizeIfInvalidHomeDir]
   fun:__isOnDirectModeBlackList_block_invoke
   fun:-[CFPrefsPlistSource createRequestNewContentMessageForDaemon:]
   fun:generationCountFromListOfSources
   fun:-[CFPrefsSearchListSource alreadylocked_generationCountFromListOfSources:count:]
}
{
   <insert_a_suppression_name_here>
   Memcheck:Leak
   match-leak-kinds: reachable
   fun:malloc
   fun:_xpc_malloc
   fun:_xpc_dictionary_insert
   fun:xpc_dictionary_set_int64
   fun:-[_CFXPreferences _copyDaemonConnectionSettingUpIfNecessaryForRole:]
   fun:-[CFPrefsPlistSource createSynchronizeMessage]
   fun:__isOnDirectModeBlackList_block_invoke
   fun:-[CFPrefsPlistSource createRequestNewContentMessageForDaemon:]
   fun:generationCountFromListOfSources
   fun:-[CFPrefsSearchListSource alreadylocked_generationCountFromListOfSources:count:]
   fun:-[CFPrefsSearchListSource alreadylocked_generationCountFromListOfSources:count:]
   fun:__CFStringAppendFormatCore
}
{
   <insert_a_suppression_name_here>
   Memcheck:Leak
   match-leak-kinds: reachable
   fun:malloc
   fun:_xpc_malloc
   fun:_xpc_dictionary_insert
   fun:xpc_dictionary_set_int64
   fun:-[_CFXPreferences _copyDaemonConnectionSettingUpIfNecessaryForRole:]
   fun:-[CFPrefsPlistSource createSynchronizeMessage]
   fun:__isOnDirectModeBlackList_block_invoke
   fun:-[CFPrefsPlistSource createRequestNewContentMessageForDaemon:]
   fun:generationCountFromListOfSources
   fun:-[CFPrefsSearchListSource alreadylocked_generationCountFromListOfSources:count:]
   fun:-[CFPrefsSearchListSource alreadylocked_generationCountFromListOfSources:count:]
   fun:__CFStringAppendFormatCore
}
{
   <insert_a_suppression_name_here>
   Memcheck:Leak
   match-leak-kinds: reachable
   fun:calloc
   fun:_ZL13getClass_implPKc
   fun:_ZN11objc_object27sidetable_clearDeallocatingEv
   fun:_ZL19_finishInitializingP10objc_classS0_
   fun:lookUpImpOrForward
   fun:_dispatch_client_callout
   fun:_dispatch_once_callout
   fun:_os_log_preferences_refresh_process
   fun:_os_activity_create_addr
   fun:ds_user_byuid
   fun:si_user_byuid
   fun:search_item_bynumber
}
{
   <insert_a_suppression_name_here>
   Memcheck:Leak
   match-leak-kinds: reachable
   fun:calloc
   fun:_ZL13getClass_implPKc
   fun:_ZN11objc_object27sidetable_clearDeallocatingEv
   fun:_ZL19_finishInitializingP10objc_classS0_
   fun:lookUpImpOrForward
   fun:os_activity_scope_enter
   fun:ds_user_byuid
   fun:si_user_byuid
   fun:search_item_bynumber
   fun:search_user_byuid
   fun:si_user_byuid
   fun:getpwuid_r
}
{
   <insert_a_suppression_name_here>
   Memcheck:Leak
   match-leak-kinds: reachable
   fun:calloc
   fun:_ZL13getClass_implPKc
   fun:_ZN11objc_object27sidetable_clearDeallocatingEv
   fun:_ZL19_finishInitializingP10objc_classS0_
   fun:_ZL13addNamedClassP10objc_classPKcS0_
   fun:CFRetain
   fun:__CFStringCreateImmutableFunnel3
   fun:__CFStringCreateImmutableFunnel3
   fun:_CFLibraryVersionCompare
   fun:_ZN16ImageLoaderMachO11doImageInitERKN11ImageLoader11LinkContextE
   fun:_ZN16ImageLoaderMachO16doInitializationERKN11ImageLoader11LinkContextE
   fun:_ZN11ImageLoader23recursiveInitializationERKNS_11LinkContextEjPKcRNS_21InitializerTimingListERNS_15UninitedUpwardsE
}
{
   <insert_a_suppression_name_here>
   Memcheck:Leak
   match-leak-kinds: reachable
   fun:calloc
   fun:_ZL13getClass_implPKc
   fun:_ZN11objc_object27sidetable_clearDeallocatingEv
   fun:_ZL19_finishInitializingP10objc_classS0_
   fun:lookUpImpOrForward
   fun:_CFProcessPath
   fun:__exceptionInit
   fun:_ZN16ImageLoaderMachO11doImageInitERKN11ImageLoader11LinkContextE
   fun:_ZN16ImageLoaderMachO16doInitializationERKN11ImageLoader11LinkContextE
   fun:_ZN11ImageLoader23recursiveInitializationERKNS_11LinkContextEjPKcRNS_21InitializerTimingListERNS_15UninitedUpwardsE
   fun:_ZN11ImageLoader23recursiveInitializationERKNS_11LinkContextEjPKcRNS_21InitializerTimingListERNS_15UninitedUpwardsE
   fun:_ZN11ImageLoader23recursiveInitializationERKNS_11LinkContextEjPKcRNS_21InitializerTimingListERNS_15UninitedUpwardsE
}
{
   <insert_a_suppression_name_here>
   Memcheck:Leak
   match-leak-kinds: reachable
   fun:calloc
   fun:_ZL13getClass_implPKc
   fun:_ZN11objc_object27sidetable_clearDeallocatingEv
   fun:_ZL19_finishInitializingP10objc_classS0_
   fun:lookUpImpOrForward
   fun:__exceptionInit
   fun:_ZN16ImageLoaderMachO11doImageInitERKN11ImageLoader11LinkContextE
   fun:_ZN16ImageLoaderMachO16doInitializationERKN11ImageLoader11LinkContextE
   fun:_ZN11ImageLoader23recursiveInitializationERKNS_11LinkContextEjPKcRNS_21InitializerTimingListERNS_15UninitedUpwardsE
   fun:_ZN11ImageLoader23recursiveInitializationERKNS_11LinkContextEjPKcRNS_21InitializerTimingListERNS_15UninitedUpwardsE
   fun:_ZN11ImageLoader23recursiveInitializationERKNS_11LinkContextEjPKcRNS_21InitializerTimingListERNS_15UninitedUpwardsE
   fun:_ZN11ImageLoader23recursiveInitializationERKNS_11LinkContextEjPKcRNS_21InitializerTimingListERNS_15UninitedUpwardsE
}
{
   <insert_a_suppression_name_here>
   Memcheck:Leak
   match-leak-kinds: reachable
   fun:calloc
   fun:_ZL13getClass_implPKc
   fun:_ZN11objc_object27sidetable_clearDeallocatingEv
   fun:_ZL19_finishInitializingP10objc_classS0_
   fun:lookUpImpOrForward
   fun:CFStringGetSystemEncoding
   fun:__exceptionInit
   fun:_ZN16ImageLoaderMachO11doImageInitERKN11ImageLoader11LinkContextE
   fun:_ZN16ImageLoaderMachO16doInitializationERKN11ImageLoader11LinkContextE
   fun:_ZN11ImageLoader23recursiveInitializationERKNS_11LinkContextEjPKcRNS_21InitializerTimingListERNS_15UninitedUpwardsE
   fun:_ZN11ImageLoader23recursiveInitializationERKNS_11LinkContextEjPKcRNS_21InitializerTimingListERNS_15UninitedUpwardsE
   fun:_ZN11ImageLoader23recursiveInitializationERKNS_11LinkContextEjPKcRNS_21InitializerTimingListERNS_15UninitedUpwardsE
}
{
   <insert_a_suppression_name_here>
   Memcheck:Leak
   match-leak-kinds: reachable
   fun:calloc
   fun:_ZL13getClass_implPKc
   fun:_ZN11objc_object27sidetable_clearDeallocatingEv
   fun:_ZL19_finishInitializingP10objc_classS0_
   fun:lookUpImpOrForward
   fun:_NSInitializePlatform
   fun:objc_msgLookup_fpret
   fun:_ZN4dyldL12notifySingleE17dyld_image_statesPK11ImageLoaderPNS1_21InitializerTimingListE
   fun:_ZN11ImageLoader23recursiveInitializationERKNS_11LinkContextEjPKcRNS_21InitializerTimingListERNS_15UninitedUpwardsE
   fun:_ZN11ImageLoader23recursiveInitializationERKNS_11LinkContextEjPKcRNS_21InitializerTimingListERNS_15UninitedUpwardsE
   fun:_ZN11ImageLoader23recursiveInitializationERKNS_11LinkContextEjPKcRNS_21InitializerTimingListERNS_15UninitedUpwardsE
   fun:_ZN11ImageLoader23recursiveInitializationERKNS_11LinkContextEjPKcRNS_21InitializerTimingListERNS_15UninitedUpwardsE
}
{
   <insert_a_suppression_name_here>
   Memcheck:Leak
   match-leak-kinds: reachable
   fun:malloc_zone_calloc
   fun:__NSSingleObjectArrayI_new
   fun:__CFBasicHashGetPtrIndex_block_invoke
   fun:__CFBasicHashGetPtrIndex_block_invoke
   fun:CFBasicHashCreate
   fun:____NSThreads_block_invoke
   fun:_dispatch_client_callout
   fun:_dispatch_once_callout
   fun:_NSThreadGet0
   fun:_NSInitializePlatform
   fun:objc_msgLookup_fpret
   fun:_ZN4dyldL12notifySingleE17dyld_image_statesPK11ImageLoaderPNS1_21InitializerTimingListE
}
{
   <insert_a_suppression_name_here>
   Memcheck:Leak
   match-leak-kinds: reachable
   fun:calloc
   fun:_ZL13getClass_implPKc
   fun:_ZN11objc_object27sidetable_clearDeallocatingEv
   fun:_ZL19_finishInitializingP10objc_classS0_
   fun:_ZL13addNamedClassP10objc_classPKcS0_
   fun:CFBasicHashCreate
   fun:____NSThreads_block_invoke
   fun:_dispatch_client_callout
   fun:_dispatch_once_callout
   fun:_NSThreadGet0
   fun:_NSInitializePlatform
   fun:objc_msgLookup_fpret
}
{
   <insert_a_suppression_name_here>
   Memcheck:Leak
   match-leak-kinds: reachable
   fun:calloc
   fun:_ZL12read_addressPmPK14dwarf_eh_basesh
   fun:weak_register_no_lock
   fun:____NSThreads_block_invoke
   fun:_dispatch_client_callout
   fun:_dispatch_once_callout
   fun:_NSThreadGet0
   fun:_NSInitializePlatform
   fun:objc_msgLookup_fpret
   fun:_ZN4dyldL12notifySingleE17dyld_image_statesPK11ImageLoaderPNS1_21InitializerTimingListE
   fun:_ZN11ImageLoader23recursiveInitializationERKNS_11LinkContextEjPKcRNS_21InitializerTimingListERNS_15UninitedUpwardsE
   fun:_ZN11ImageLoader23recursiveInitializationERKNS_11LinkContextEjPKcRNS_21InitializerTimingListERNS_15UninitedUpwardsE
}
{
   <insert_a_suppression_name_here>
   Memcheck:Leak
   match-leak-kinds: reachable
   fun:calloc
   fun:_ZL13getClass_implPKc
   fun:_ZN11objc_object27sidetable_clearDeallocatingEv
   fun:_ZL19_finishInitializingP10objc_classS0_
   fun:lookUpImpOrForward
   fun:____NSThreads_block_invoke
   fun:_dispatch_client_callout
   fun:_dispatch_once_callout
   fun:_NSThreadGet0
   fun:_NSInitializePlatform
   fun:objc_msgLookup_fpret
   fun:_ZN4dyldL12notifySingleE17dyld_image_statesPK11ImageLoaderPNS1_21InitializerTimingListE
}
{
   <insert_a_suppression_name_here>
   Memcheck:Leak
   match-leak-kinds: reachable
   fun:calloc
   fun:_ZL13getClass_implPKc
   fun:_ZN11objc_object27sidetable_clearDeallocatingEv
   fun:_ZL19_finishInitializingP10objc_classS0_
   fun:lookUpImpOrForward
   fun:CFBasicHashSetValue
   fun:-[NSThread init]
   fun:____NSThreads_block_invoke
   fun:_dispatch_client_callout
   fun:_dispatch_once_callout
   fun:_NSThreadGet0
   fun:_NSInitializePlatform
}
{
   <insert_a_suppression_name_here>
   Memcheck:Leak
   match-leak-kinds: reachable
   fun:calloc
   fun:_ZL13getClass_implPKc
   fun:_ZN11objc_object27sidetable_clearDeallocatingEv
   fun:_ZL19_finishInitializingP10objc_classS0_
   fun:lookUpImpOrForward
   fun:+[NSBinder load]
   fun:objc_msgLookup_fp2ret
   fun:_ZN4dyldL12notifySingleE17dyld_image_statesPK11ImageLoaderPNS1_21InitializerTimingListE
   fun:_ZN11ImageLoader23recursiveInitializationERKNS_11LinkContextEjPKcRNS_21InitializerTimingListERNS_15UninitedUpwardsE
   fun:_ZN11ImageLoader23recursiveInitializationERKNS_11LinkContextEjPKcRNS_21InitializerTimingListERNS_15UninitedUpwardsE
   fun:_ZN11ImageLoader19processInitializersERKNS_11LinkContextEjRNS_21InitializerTimingListERNS_15UninitedUpwardsE
   fun:_ZN11ImageLoader15runInitializersERKNS_11LinkContextERNS_21InitializerTimingListE
}
{
   <insert_a_suppression_name_here>
   Memcheck:Leak
   match-leak-kinds: reachable
   fun:calloc
   fun:_ZL13getClass_implPKc
   fun:_ZN11objc_object27sidetable_clearDeallocatingEv
   fun:_ZL19_finishInitializingP10objc_classS0_
   fun:lookUpImpOrForward
   fun:+[NSBinder load]
   fun:objc_msgLookup_fp2ret
   fun:_ZN4dyldL12notifySingleE17dyld_image_statesPK11ImageLoaderPNS1_21InitializerTimingListE
   fun:_ZN11ImageLoader23recursiveInitializationERKNS_11LinkContextEjPKcRNS_21InitializerTimingListERNS_15UninitedUpwardsE
   fun:_ZN11ImageLoader23recursiveInitializationERKNS_11LinkContextEjPKcRNS_21InitializerTimingListERNS_15UninitedUpwardsE
   fun:_ZN11ImageLoader19processInitializersERKNS_11LinkContextEjRNS_21InitializerTimingListERNS_15UninitedUpwardsE
   fun:_ZN11ImageLoader15runInitializersERKNS_11LinkContextERNS_21InitializerTimingListE
}
{
   <insert_a_suppression_name_here>
   Memcheck:Leak
   match-leak-kinds: reachable
   fun:calloc
   fun:_ZL13getClass_implPKc
   fun:_ZN11objc_object27sidetable_clearDeallocatingEv
   fun:_ZL19_finishInitializingP10objc_classS0_
   fun:lookUpImpOrForward
   fun:+[NSBinder load]
   fun:objc_msgLookup_fp2ret
   fun:_ZN4dyldL12notifySingleE17dyld_image_statesPK11ImageLoaderPNS1_21InitializerTimingListE
   fun:_ZN11ImageLoader23recursiveInitializationERKNS_11LinkContextEjPKcRNS_21InitializerTimingListERNS_15UninitedUpwardsE
   fun:_ZN11ImageLoader23recursiveInitializationERKNS_11LinkContextEjPKcRNS_21InitializerTimingListERNS_15UninitedUpwardsE
   fun:_ZN11ImageLoader19processInitializersERKNS_11LinkContextEjRNS_21InitializerTimingListERNS_15UninitedUpwardsE
   fun:_ZN11ImageLoader15runInitializersERKNS_11LinkContextERNS_21InitializerTimingListE
}
{
   <insert_a_suppression_name_here>
   Memcheck:Leak
   match-leak-kinds: reachable
   fun:calloc
   fun:_ZL13getClass_implPKc
   fun:_ZN11objc_object27sidetable_clearDeallocatingEv
   fun:_ZL19_finishInitializingP10objc_classS0_
   fun:lookUpImpOrForward
   fun:+[NSString initialize]
   fun:_objc_addWillInitializeClassFunc
   fun:_ZN13list_array_ttI8method_t13method_list_t24method_list_t_authed_ptrE11attachListsEPKPS1_j
   fun:_ZL24realizeClassWithoutSwiftP10objc_classS0_
   fun:-[NSObject dealloc]
   fun:lookUpImpOrForward
   fun:NSClassFromString
}
{
   <insert_a_suppression_name_here>
   Memcheck:Leak
   match-leak-kinds: reachable
   fun:calloc
   fun:_ZL13getClass_implPKc
   fun:_ZN11objc_object27sidetable_clearDeallocatingEv
   fun:_ZL19_finishInitializingP10objc_classS0_
   fun:lookUpImpOrForward
   fun:NSClassFromString
   fun:___NSIsProKitApplication_block_invoke
   fun:_dispatch_client_callout
   fun:_dispatch_once_callout
   fun:_NSIsProKitApplication
   fun:+[NSColorSpaceColor load]
   fun:objc_msgLookup_fp2ret
}
{
   <insert_a_suppression_name_here>
   Memcheck:Leak
   match-leak-kinds: reachable
   fun:malloc
   fun:mlx_init
   fun:main
}
{
   <insert_a_suppression_name_here>
   Memcheck:Leak
   match-leak-kinds: reachable
   fun:calloc
   fun:_ZL13getClass_implPKc
   fun:_ZN11objc_object27sidetable_clearDeallocatingEv
   fun:_ZL19_finishInitializingP10objc_classS0_
   fun:lookUpImpOrForward
   fun:+[NSApplication initialize]
   fun:_objc_addWillInitializeClassFunc
   fun:_ZN13list_array_ttI8method_t13method_list_t24method_list_t_authed_ptrE11attachListsEPKPS1_j
   fun:_ZL24realizeClassWithoutSwiftP10objc_classS0_
   fun:-[NSObject dealloc]
   fun:lookUpImpOrForward
   fun:mlx_init
}
{
   <insert_a_suppression_name_here>
   Memcheck:Leak
   match-leak-kinds: reachable
   fun:calloc
   fun:_ZL13getClass_implPKc
   fun:_ZN11objc_object27sidetable_clearDeallocatingEv
   fun:_ZL19_finishInitializingP10objc_classS0_
   fun:lookUpImpOrForward
   fun:+[NSUserDefaults(NSUserDefaults) standardUserDefaults]
   fun:+[NSApplication initialize]
   fun:_objc_addWillInitializeClassFunc
   fun:_ZN13list_array_ttI8method_t13method_list_t24method_list_t_authed_ptrE11attachListsEPKPS1_j
   fun:_ZL24realizeClassWithoutSwiftP10objc_classS0_
   fun:-[NSObject dealloc]
   fun:lookUpImpOrForward
}
{
   <insert_a_suppression_name_here>
   Memcheck:Leak
   match-leak-kinds: reachable
   fun:calloc
   fun:_ZL13getClass_implPKc
   fun:_ZN11objc_object27sidetable_clearDeallocatingEv
   fun:_ZL19_finishInitializingP10objc_classS0_
   fun:lookUpImpOrForward
   fun:-[NSUserDefaults(NSUserDefaults) init]
   fun:+[NSUserDefaults(NSUserDefaults) standardUserDefaults]
   fun:+[NSApplication initialize]
   fun:_objc_addWillInitializeClassFunc
   fun:_ZN13list_array_ttI8method_t13method_list_t24method_list_t_authed_ptrE11attachListsEPKPS1_j
   fun:_ZL24realizeClassWithoutSwiftP10objc_classS0_
   fun:-[NSObject dealloc]
}
{
   <insert_a_suppression_name_here>
   Memcheck:Leak
   match-leak-kinds: reachable
   fun:calloc
   fun:_ZL13getClass_implPKc
   fun:_ZN11objc_object27sidetable_clearDeallocatingEv
   fun:_ZL19_finishInitializingP10objc_classS0_
   fun:lookUpImpOrForward
   fun:parseXMLElement
   fun:-[NSUserDefaults(NSUserDefaults) init]
   fun:+[NSUserDefaults(NSUserDefaults) standardUserDefaults]
   fun:+[NSApplication initialize]
   fun:_objc_addWillInitializeClassFunc
   fun:_ZN13list_array_ttI8method_t13method_list_t24method_list_t_authed_ptrE11attachListsEPKPS1_j
   fun:_ZL24realizeClassWithoutSwiftP10objc_classS0_
}
{
   <insert_a_suppression_name_here>
   Memcheck:Leak
   match-leak-kinds: reachable
   fun:calloc
   fun:_ZL13getClass_implPKc
   fun:_ZN11objc_object27sidetable_clearDeallocatingEv
   fun:_ZL19_finishInitializingP10objc_classS0_
   fun:lookUpImpOrForward
   fun:-[NSUserDefaults(NSUserDefaults) init]
   fun:+[NSUserDefaults(NSUserDefaults) standardUserDefaults]
   fun:+[NSApplication initialize]
   fun:_objc_addWillInitializeClassFunc
   fun:_ZN13list_array_ttI8method_t13method_list_t24method_list_t_authed_ptrE11attachListsEPKPS1_j
   fun:_ZL24realizeClassWithoutSwiftP10objc_classS0_
   fun:-[NSObject dealloc]
}
{
   <insert_a_suppression_name_here>
   Memcheck:Leak
   match-leak-kinds: reachable
   fun:calloc
   fun:_ZL13getClass_implPKc
   fun:_ZN11objc_object27sidetable_clearDeallocatingEv
   fun:_ZL19_finishInitializingP10objc_classS0_
   fun:lookUpImpOrForward
   fun:__28+[NSProcessInfo processInfo]_block_invoke
   fun:_dispatch_client_callout
   fun:_dispatch_once_callout
   fun:+[NSProcessInfo processInfo]
   fun:-[NSUserDefaults(NSUserDefaults) init]
   fun:+[NSUserDefaults(NSUserDefaults) standardUserDefaults]
   fun:+[NSApplication initialize]
}
{
   <insert_a_suppression_name_here>
   Memcheck:Leak
   match-leak-kinds: reachable
   fun:malloc_zone_calloc
   fun:__NSSingleObjectArrayI_new
   fun:__CFStringCreateImmutableFunnel3
   fun:__CFStringCreateImmutableFunnel3
   fun:-[NSProcessInfo arguments]
   fun:-[NSUserDefaults(NSUserDefaults) init]
   fun:+[NSUserDefaults(NSUserDefaults) standardUserDefaults]
   fun:+[NSApplication initialize]
   fun:_objc_addWillInitializeClassFunc
   fun:_ZN13list_array_ttI8method_t13method_list_t24method_list_t_authed_ptrE11attachListsEPKPS1_j
   fun:_ZL24realizeClassWithoutSwiftP10objc_classS0_
   fun:-[NSObject dealloc]
}
{
   <insert_a_suppression_name_here>
   Memcheck:Leak
   match-leak-kinds: reachable
   fun:calloc
   fun:_ZL13getClass_implPKc
   fun:_ZN11objc_object27sidetable_clearDeallocatingEv
   fun:_ZL19_finishInitializingP10objc_classS0_
   fun:lookUpImpOrForward
   fun:-[NSProcessInfo arguments]
   fun:-[NSUserDefaults(NSUserDefaults) init]
   fun:+[NSUserDefaults(NSUserDefaults) standardUserDefaults]
   fun:+[NSApplication initialize]
   fun:_objc_addWillInitializeClassFunc
   fun:_ZN13list_array_ttI8method_t13method_list_t24method_list_t_authed_ptrE11attachListsEPKPS1_j
   fun:_ZL24realizeClassWithoutSwiftP10objc_classS0_
}
{
   <insert_a_suppression_name_here>
   Memcheck:Leak
   match-leak-kinds: reachable
   fun:calloc
   fun:_ZL13getClass_implPKc
   fun:_ZN11objc_object27sidetable_clearDeallocatingEv
   fun:_ZL19_finishInitializingP10objc_classS0_
   fun:lookUpImpOrForward
   fun:-[NSString(NSPathUtilities) _stringByStandardizingPathUsingCache:]
   fun:-[NSProcessInfo arguments]
   fun:-[NSUserDefaults(NSUserDefaults) init]
   fun:+[NSUserDefaults(NSUserDefaults) standardUserDefaults]
   fun:+[NSApplication initialize]
   fun:_objc_addWillInitializeClassFunc
   fun:_ZN13list_array_ttI8method_t13method_list_t24method_list_t_authed_ptrE11attachListsEPKPS1_j
}
{
   <insert_a_suppression_name_here>
   Memcheck:Leak
   match-leak-kinds: reachable
   fun:calloc
   fun:_ZL13getClass_implPKc
   fun:_ZN11objc_object27sidetable_clearDeallocatingEv
   fun:_ZL19_finishInitializingP10objc_classS0_
   fun:lookUpImpOrForward
   fun:-[NSProcessInfo arguments]
   fun:-[NSUserDefaults(NSUserDefaults) init]
   fun:+[NSUserDefaults(NSUserDefaults) standardUserDefaults]
   fun:+[NSApplication initialize]
   fun:_objc_addWillInitializeClassFunc
   fun:_ZN13list_array_ttI8method_t13method_list_t24method_list_t_authed_ptrE11attachListsEPKPS1_j
   fun:_ZL24realizeClassWithoutSwiftP10objc_classS0_
}
{
   <insert_a_suppression_name_here>
   Memcheck:Leak
   match-leak-kinds: reachable
   fun:calloc
   fun:_ZL13getClass_implPKc
   fun:_ZN11objc_object27sidetable_clearDeallocatingEv
   fun:_ZL19_finishInitializingP10objc_classS0_
   fun:lookUpImpOrForward
   fun:-[NSProcessInfo arguments]
   fun:-[NSUserDefaults(NSUserDefaults) init]
   fun:+[NSUserDefaults(NSUserDefaults) standardUserDefaults]
   fun:+[NSApplication initialize]
   fun:_objc_addWillInitializeClassFunc
   fun:_ZN13list_array_ttI8method_t13method_list_t24method_list_t_authed_ptrE11attachListsEPKPS1_j
   fun:_ZL24realizeClassWithoutSwiftP10objc_classS0_
}
{
   <insert_a_suppression_name_here>
   Memcheck:Leak
   match-leak-kinds: reachable
   fun:calloc
   fun:_ZL13getClass_implPKc
   fun:_ZN11objc_object27sidetable_clearDeallocatingEv
   fun:_ZL19_finishInitializingP10objc_classS0_
   fun:lookUpImpOrForward
   fun:_CFPrefsGetCacheStringForBundleID
   fun:_dispatch_client_callout
   fun:_dispatch_once_callout
   fun:_CFPrefsGetCacheStringForBundleID
   fun:-[NSUserDefaults(NSUserDefaults) init]
   fun:+[NSUserDefaults(NSUserDefaults) standardUserDefaults]
   fun:+[NSApplication initialize]
}
{
   <insert_a_suppression_name_here>
   Memcheck:Leak
   match-leak-kinds: reachable
   fun:calloc
   fun:_ZL13getClass_implPKc
   fun:_ZN11objc_object27sidetable_clearDeallocatingEv
   fun:_ZL19_finishInitializingP10objc_classS0_
   fun:lookUpImpOrForward
   fun:_CFPrefsGetCacheStringForBundleID
   fun:_dispatch_client_callout
   fun:_dispatch_once_callout
   fun:_CFPrefsGetCacheStringForBundleID
   fun:-[NSUserDefaults(NSUserDefaults) init]
   fun:+[NSUserDefaults(NSUserDefaults) standardUserDefaults]
   fun:+[NSApplication initialize]
}
{
   <insert_a_suppression_name_here>
   Memcheck:Leak
   match-leak-kinds: reachable
   fun:calloc
   fun:_ZL13getClass_implPKc
   fun:_ZN11objc_object27sidetable_clearDeallocatingEv
   fun:_ZL19_finishInitializingP10objc_classS0_
   fun:lookUpImpOrForward
   fun:-[_CFXPreferences(SourceAdditions) withNamedVolatileSources:]
   fun:_CFPrefsGetCacheStringForBundleID
   fun:_dispatch_client_callout
   fun:_dispatch_once_callout
   fun:_CFPrefsGetCacheStringForBundleID
   fun:-[NSUserDefaults(NSUserDefaults) init]
   fun:+[NSUserDefaults(NSUserDefaults) standardUserDefaults]
}
{
   <insert_a_suppression_name_here>
   Memcheck:Leak
   match-leak-kinds: reachable
   fun:calloc
   fun:_ZL13getClass_implPKc
   fun:_ZN11objc_object27sidetable_clearDeallocatingEv
   fun:_ZL19_finishInitializingP10objc_classS0_
   fun:lookUpImpOrForward
   fun:-[_CFXPreferences(SourceAdditions) withNamedVolatileSources:]
   fun:_CFPrefsGetCacheStringForBundleID
   fun:_dispatch_client_callout
   fun:_dispatch_once_callout
   fun:_CFPrefsGetCacheStringForBundleID
   fun:-[NSUserDefaults(NSUserDefaults) init]
   fun:+[NSUserDefaults(NSUserDefaults) standardUserDefaults]
}
{
   <insert_a_suppression_name_here>
   Memcheck:Leak
   match-leak-kinds: reachable
   fun:calloc
   fun:_ZL13getClass_implPKc
   fun:_ZN11objc_object27sidetable_clearDeallocatingEv
   fun:_ZL19_finishInitializingP10objc_classS0_
   fun:lookUpImpOrForward
   fun:-[CFPrefsSource replaceAllValuesWithValues:forKeys:count:from:]
   fun:-[CFPrefsSource replaceAllValuesWithValues:forKeys:count:from:]
   fun:_CFPrefsGetCacheStringForBundleID
   fun:-[NSUserDefaults(NSUserDefaults) init]
   fun:+[NSUserDefaults(NSUserDefaults) standardUserDefaults]
   fun:+[NSApplication initialize]
   fun:_objc_addWillInitializeClassFunc
}
{
   <insert_a_suppression_name_here>
   Memcheck:Leak
   match-leak-kinds: reachable
   fun:calloc
   fun:_ZL13getClass_implPKc
   fun:_ZN11objc_object27sidetable_clearDeallocatingEv
   fun:_ZL19_finishInitializingP10objc_classS0_
   fun:lookUpImpOrForward
   fun:CFArrayGetValues
   fun:-[CFPrefsSource alreadylocked_copyKeyList]
   fun:-[CFPrefsSource replaceAllValuesWithValues:forKeys:count:from:]
   fun:-[CFPrefsSource replaceAllValuesWithValues:forKeys:count:from:]
   fun:-[CFPrefsSource replaceAllValuesWithValues:forKeys:count:from:]
   fun:-[CFPrefsSource replaceAllValuesWithValues:forKeys:count:from:]
   fun:_CFPrefsGetCacheStringForBundleID
}
{
   <insert_a_suppression_name_here>
   Memcheck:Leak
   match-leak-kinds: reachable
   fun:calloc
   fun:_ZL12read_addressPmPK14dwarf_eh_basesh
   fun:CFArrayGetValues
   fun:-[CFPrefsSource alreadylocked_copyKeyList]
   fun:-[CFPrefsSource replaceAllValuesWithValues:forKeys:count:from:]
   fun:-[CFPrefsSource replaceAllValuesWithValues:forKeys:count:from:]
   fun:-[CFPrefsSource replaceAllValuesWithValues:forKeys:count:from:]
   fun:-[CFPrefsSource replaceAllValuesWithValues:forKeys:count:from:]
   fun:_CFPrefsGetCacheStringForBundleID
   fun:-[NSUserDefaults(NSUserDefaults) init]
   fun:+[NSUserDefaults(NSUserDefaults) standardUserDefaults]
   fun:+[NSApplication initialize]
}
{
   <insert_a_suppression_name_here>
   Memcheck:Leak
   match-leak-kinds: reachable
   fun:calloc
   fun:_ZL13getClass_implPKc
   fun:_ZN11objc_object27sidetable_clearDeallocatingEv
   fun:_ZL19_finishInitializingP10objc_classS0_
   fun:lookUpImpOrForward
   fun:CFArrayGetValues
   fun:-[CFPrefsSource alreadylocked_copyKeyList]
   fun:-[CFPrefsSource replaceAllValuesWithValues:forKeys:count:from:]
   fun:-[CFPrefsSource replaceAllValuesWithValues:forKeys:count:from:]
   fun:-[CFPrefsSource replaceAllValuesWithValues:forKeys:count:from:]
   fun:-[CFPrefsSource replaceAllValuesWithValues:forKeys:count:from:]
   fun:_CFPrefsGetCacheStringForBundleID
}
{
   <insert_a_suppression_name_here>
   Memcheck:Leak
   match-leak-kinds: reachable
   fun:calloc
   fun:_ZL13getClass_implPKc
   fun:_ZN11objc_object27sidetable_clearDeallocatingEv
   fun:_ZL19_finishInitializingP10objc_classS0_
   fun:lookUpImpOrForward
   fun:cow_cleanup
   fun:-[NSArray getObjects:range:]
   fun:-[CFPrefsSource replaceAllValuesWithValues:forKeys:count:from:]
   fun:-[CFPrefsSource replaceAllValuesWithValues:forKeys:count:from:]
   fun:-[CFPrefsSource replaceAllValuesWithValues:forKeys:count:from:]
   fun:-[CFPrefsSource replaceAllValuesWithValues:forKeys:count:from:]
   fun:_CFPrefsGetCacheStringForBundleID
}
{
   <insert_a_suppression_name_here>
   Memcheck:Leak
   match-leak-kinds: reachable
   fun:calloc
   fun:_ZL13getClass_implPKc
   fun:_ZN11objc_object27sidetable_clearDeallocatingEv
   fun:_ZL19_finishInitializingP10objc_classS0_
   fun:lookUpImpOrForward
   fun:_CFStringSlowPathCopyBundleUnloadingProtectedString
   fun:-[NSUserDefaults(NSUserDefaults) init]
   fun:+[NSUserDefaults(NSUserDefaults) standardUserDefaults]
   fun:+[NSApplication initialize]
   fun:_objc_addWillInitializeClassFunc
   fun:_ZN13list_array_ttI8method_t13method_list_t24method_list_t_authed_ptrE11attachListsEPKPS1_j
   fun:_ZL24realizeClassWithoutSwiftP10objc_classS0_
}
{
   <insert_a_suppression_name_here>
   Memcheck:Leak
   match-leak-kinds: reachable
   fun:malloc_zone_calloc
   fun:__NSSingleObjectArrayI_new
   fun:__CFStringCreateImmutableFunnel3
   fun:__CFStringCreateImmutableFunnel3
   fun:CFStringFindWithOptionsAndLocale
   fun:-[CFPrefsSource alreadylocked_copyKeyList]
   fun:-[CFPrefsSearchListSource addManagedSourceForIdentifier:user:]
   fun:__108-[_CFXPreferences(SearchListAdditions) withSearchListForIdentifier:container:cloudConfigurationURL:perform:]_block_invoke
   fun:__108-[_CFXPreferences(SearchListAdditions) withSearchListForIdentifier:container:cloudConfigurationURL:perform:]_block_invoke
   fun:-[NSUserDefaults(NSUserDefaults) init]
   fun:+[NSUserDefaults(NSUserDefaults) standardUserDefaults]
   fun:+[NSApplication initialize]
}
{
   <insert_a_suppression_name_here>
   Memcheck:Leak
   match-leak-kinds: reachable
   fun:calloc
   fun:_ZL13getClass_implPKc
   fun:_ZN11objc_object27sidetable_clearDeallocatingEv
   fun:_ZL19_finishInitializingP10objc_classS0_
   fun:_ZL13addNamedClassP10objc_classPKcS0_
   fun:CFRetain
   fun:_CFStringGetLength2
   fun:CFStringFindWithOptionsAndLocale
   fun:-[CFPrefsSource alreadylocked_copyKeyList]
   fun:-[CFPrefsSearchListSource addManagedSourceForIdentifier:user:]
   fun:__108-[_CFXPreferences(SearchListAdditions) withSearchListForIdentifier:container:cloudConfigurationURL:perform:]_block_invoke
   fun:__108-[_CFXPreferences(SearchListAdditions) withSearchListForIdentifier:container:cloudConfigurationURL:perform:]_block_invoke
}
{
   <insert_a_suppression_name_here>
   Memcheck:Leak
   match-leak-kinds: reachable
   fun:calloc
   fun:_ZL13getClass_implPKc
   fun:_ZN11objc_object27sidetable_clearDeallocatingEv
   fun:_ZL19_finishInitializingP10objc_classS0_
   fun:lookUpImpOrForward
   fun:_CFURLCreateWithFileSystemPath
   fun:CFURLGetString
   fun:CFURLCopyAbsoluteURL
   fun:CFStringFindWithOptionsAndLocale
   fun:-[CFPrefsSource alreadylocked_copyKeyList]
   fun:-[CFPrefsSearchListSource addManagedSourceForIdentifier:user:]
   fun:__108-[_CFXPreferences(SearchListAdditions) withSearchListForIdentifier:container:cloudConfigurationURL:perform:]_block_invoke
}
{
   <insert_a_suppression_name_here>
   Memcheck:Leak
   match-leak-kinds: reachable
   fun:malloc_zone_calloc
   fun:__NSSingleObjectArrayI_new
   fun:__CFStringCreateImmutableFunnel3
   fun:CFURLCopyAbsoluteURL
   fun:CFURLCopyAbsoluteURL
   fun:_CFBundleGetBundleVersionForURL
   fun:_CFBundleCreate
   fun:CFStringFindWithOptionsAndLocale
   fun:-[CFPrefsSource alreadylocked_copyKeyList]
   fun:-[CFPrefsSearchListSource addManagedSourceForIdentifier:user:]
   fun:__108-[_CFXPreferences(SearchListAdditions) withSearchListForIdentifier:container:cloudConfigurationURL:perform:]_block_invoke
   fun:__108-[_CFXPreferences(SearchListAdditions) withSearchListForIdentifier:container:cloudConfigurationURL:perform:]_block_invoke
}
{
   <insert_a_suppression_name_here>
   Memcheck:Leak
   match-leak-kinds: reachable
   fun:malloc_zone_calloc
   fun:__NSSingleObjectArrayI_new
   fun:__CFStringCreateImmutableFunnel3
   fun:CFURLCopyAbsoluteURL
   fun:CFStringGetBytes
   fun:_CFBundleCreate
   fun:CFStringFindWithOptionsAndLocale
   fun:-[CFPrefsSource alreadylocked_copyKeyList]
   fun:-[CFPrefsSearchListSource addManagedSourceForIdentifier:user:]
   fun:__108-[_CFXPreferences(SearchListAdditions) withSearchListForIdentifier:container:cloudConfigurationURL:perform:]_block_invoke
   fun:__108-[_CFXPreferences(SearchListAdditions) withSearchListForIdentifier:container:cloudConfigurationURL:perform:]_block_invoke
   fun:-[NSUserDefaults(NSUserDefaults) init]
}
{
   <insert_a_suppression_name_here>
   Memcheck:Leak
   match-leak-kinds: reachable
   fun:calloc
   fun:_ZL13getClass_implPKc
   fun:_ZN11objc_object27sidetable_clearDeallocatingEv
   fun:_ZL19_finishInitializingP10objc_classS0_
   fun:lookUpImpOrForward
   fun:__108-[_CFXPreferences(SearchListAdditions) withSearchListForIdentifier:container:cloudConfigurationURL:perform:]_block_invoke.249
   fun:__CFStringAppendFormatCore
   fun:__CFStringAppendFormatCore
   fun:-[CFPrefsSearchListSource addManagedSourceForIdentifier:user:]
   fun:__108-[_CFXPreferences(SearchListAdditions) withSearchListForIdentifier:container:cloudConfigurationURL:perform:]_block_invoke
   fun:__108-[_CFXPreferences(SearchListAdditions) withSearchListForIdentifier:container:cloudConfigurationURL:perform:]_block_invoke
   fun:-[NSUserDefaults(NSUserDefaults) init]
}
{
   <insert_a_suppression_name_here>
   Memcheck:Leak
   match-leak-kinds: reachable
   fun:calloc
   fun:_ZL13getClass_implPKc
   fun:_ZN11objc_object27sidetable_clearDeallocatingEv
   fun:_ZL19_finishInitializingP10objc_classS0_
   fun:lookUpImpOrForward
   fun:__108-[_CFXPreferences(SearchListAdditions) withSearchListForIdentifier:container:cloudConfigurationURL:perform:]_block_invoke.249
   fun:__CFStringAppendFormatCore
   fun:__CFStringAppendFormatCore
   fun:-[CFPrefsSearchListSource addManagedSourceForIdentifier:user:]
   fun:__108-[_CFXPreferences(SearchListAdditions) withSearchListForIdentifier:container:cloudConfigurationURL:perform:]_block_invoke
   fun:__108-[_CFXPreferences(SearchListAdditions) withSearchListForIdentifier:container:cloudConfigurationURL:perform:]_block_invoke
   fun:-[NSUserDefaults(NSUserDefaults) init]
}
{
   <insert_a_suppression_name_here>
   Memcheck:Leak
   match-leak-kinds: reachable
   fun:calloc
   fun:_ZL13getClass_implPKc
   fun:_ZN11objc_object27sidetable_clearDeallocatingEv
   fun:_ZL19_finishInitializingP10objc_classS0_
   fun:_ZL10addMethodsP10objc_classPKP13objc_selectorPKPFvvEPPKcjbPj
   fun:objc_getProperty
   fun:CFArrayContainsValue
   fun:__CFStringAppendFormatCore
   fun:__CFStringAppendFormatCore
   fun:__CFStringAppendFormatCore
   fun:__CFStringAppendFormatCore
   fun:__CFStringAppendFormatCore
}
{
   <insert_a_suppression_name_here>
   Memcheck:Leak
   match-leak-kinds: reachable
   fun:malloc_zone_calloc
   fun:__NSSingleObjectArrayI_new
   fun:__CFStringCreateImmutableFunnel3
   fun:__NSSetI_new
   fun:__CFStringAppendFormatCore
   fun:__CFStringAppendFormatCore
   fun:__CFStringAppendFormatCore
   fun:__CFStringAppendFormatCore
   fun:__108-[_CFXPreferences(SearchListAdditions) withSearchListForIdentifier:container:cloudConfigurationURL:perform:]_block_invoke.249
   fun:__CFStringAppendFormatCore
   fun:__CFStringAppendFormatCore
   fun:-[CFPrefsSearchListSource addManagedSourceForIdentifier:user:]
}
{
   <insert_a_suppression_name_here>
   Memcheck:Leak
   match-leak-kinds: reachable
   fun:calloc
   fun:_ZL13getClass_implPKc
   fun:_ZN11objc_object27sidetable_clearDeallocatingEv
   fun:_ZL19_finishInitializingP10objc_classS0_
   fun:lookUpImpOrForward
   fun:-[CFPrefsSearchListSource copyCloudConfigurationWithURL:outConfigFileSource:outStoreName:]
   fun:-[CFPrefsSearchListSource copyCloudConfigurationWithURL:outConfigFileSource:outStoreName:]
   fun:__CFStringAppendFormatCore
   fun:__CFStringAppendFormatCore
   fun:__108-[_CFXPreferences(SearchListAdditions) withSearchListForIdentifier:container:cloudConfigurationURL:perform:]_block_invoke.249
   fun:__CFStringAppendFormatCore
   fun:__CFStringAppendFormatCore
}
{
   <insert_a_suppression_name_here>
   Memcheck:Leak
   match-leak-kinds: reachable
   fun:calloc
   fun:_ZL13getClass_implPKc
   fun:_ZN11objc_object27sidetable_clearDeallocatingEv
   fun:_ZL19_finishInitializingP10objc_classS0_
   fun:lookUpImpOrForward
   fun:-[CFPrefsSearchListSource copyCloudConfigurationWithURL:outConfigFileSource:outStoreName:]
   fun:-[CFPrefsSearchListSource copyCloudConfigurationWithURL:outConfigFileSource:outStoreName:]
   fun:__CFStringAppendFormatCore
   fun:__CFStringAppendFormatCore
   fun:__108-[_CFXPreferences(SearchListAdditions) withSearchListForIdentifier:container:cloudConfigurationURL:perform:]_block_invoke.249
   fun:__CFStringAppendFormatCore
   fun:__CFStringAppendFormatCore
}
{
   <insert_a_suppression_name_here>
   Memcheck:Leak
   match-leak-kinds: reachable
   fun:calloc
   fun:_ZL13getClass_implPKc
   fun:_ZN11objc_object27sidetable_clearDeallocatingEv
   fun:_ZL19_finishInitializingP10objc_classS0_
   fun:lookUpImpOrForward
   fun:-[CFPrefsSearchListSource copyCloudConfigurationWithURL:outConfigFileSource:outStoreName:]
   fun:-[CFPrefsSearchListSource copyCloudConfigurationWithURL:outConfigFileSource:outStoreName:]
   fun:-[CFPrefsSearchListSource copyCloudConfigurationWithURL:outConfigFileSource:outStoreName:]
   fun:__CFStringAppendFormatCore
   fun:__CFStringAppendFormatCore
   fun:__108-[_CFXPreferences(SearchListAdditions) withSearchListForIdentifier:container:cloudConfigurationURL:perform:]_block_invoke.249
   fun:__CFStringAppendFormatCore
}
{
   <insert_a_suppression_name_here>
   Memcheck:Leak
   match-leak-kinds: reachable
   fun:malloc_zone_calloc
   fun:__NSSingleObjectArrayI_new
   fun:__CFStringCreateImmutableFunnel3
   fun:__NSSetI_new
   fun:__CFStringAppendFormatCore
   fun:__CFStringAppendFormatCore
   fun:__CFStringAppendFormatCore
   fun:__CFStringAppendFormatCore
   fun:__108-[_CFXPreferences(SearchListAdditions) withSearchListForIdentifier:container:cloudConfigurationURL:perform:]_block_invoke.249
   fun:__CFStringAppendFormatCore
   fun:__CFStringAppendFormatCore
   fun:-[CFPrefsSearchListSource addManagedSourceForIdentifier:user:]
}
{
   <insert_a_suppression_name_here>
   Memcheck:Leak
   match-leak-kinds: reachable
   fun:calloc
   fun:_ZL13getClass_implPKc
   fun:_ZN11objc_object27sidetable_clearDeallocatingEv
   fun:_ZL19_finishInitializingP10objc_classS0_
   fun:lookUpImpOrForward
   fun:+[NSNumber initialize]
   fun:_objc_addWillInitializeClassFunc
   fun:_ZN13list_array_ttI8method_t13method_list_t24method_list_t_authed_ptrE11attachListsEPKPS1_j
   fun:_ZL24realizeClassWithoutSwiftP10objc_classS0_
   fun:-[NSObject dealloc]
   fun:lookUpImpOrForward
   fun:mdict_rehashd
}
{
   <insert_a_suppression_name_here>
   Memcheck:Leak
   match-leak-kinds: reachable
   fun:calloc
   fun:_ZL13getClass_implPKc
   fun:_ZN11objc_object27sidetable_clearDeallocatingEv
   fun:_ZL19_finishInitializingP10objc_classS0_
   fun:lookUpImpOrForward
   fun:mdict_rehashd
   fun:_CFGetFileProperties
   fun:-[CFPrefsSearchListSource copyCloudConfigurationWithURL:outConfigFileSource:outStoreName:]
   fun:_CFPrefsExtractQuadrupleFromPathIfPossible
   fun:_CFPrefsExtractQuadrupleFromPathIfPossible
   fun:__destroy_helper_block_e8_32o40r48r
   fun:__CFStringAppendFormatCore
}
{
   <insert_a_suppression_name_here>
   Memcheck:Leak
   match-leak-kinds: reachable
   fun:malloc_zone_calloc
   fun:__NSSingleObjectArrayI_new
   fun:__CFStringCreateImmutableFunnel3
   fun:__NSSetI_new
   fun:__CFStringAppendFormatCore
   fun:__CFStringAppendFormatCore
   fun:-[CFPrefsSearchListSource alreadylocked_getDictionary:]
   fun:-[CFPrefsSearchListSource alreadylocked_getDictionary:]
   fun:-[CFPrefsSearchListSource alreadylocked_copyValueForKey:]
   fun:-[_CFXPreferences(SearchListAdditions) assertEquivalence:ofIdentifiers:containers:cloudConfigurationURLs:]
   fun:__CFStringAppendFormatCore
   fun:__CFStringAppendFormatCore
}
{
   <insert_a_suppression_name_here>
   Memcheck:Leak
   match-leak-kinds: reachable
   fun:calloc
   fun:_ZL13getClass_implPKc
   fun:_ZN11objc_object27sidetable_clearDeallocatingEv
   fun:_ZL19_finishInitializingP10objc_classS0_
   fun:lookUpImpOrForward
   fun:-[CFPrefsSearchListSource alreadylocked_getDictionary:]
   fun:-[CFPrefsSearchListSource alreadylocked_getDictionary:]
   fun:-[CFPrefsSearchListSource alreadylocked_copyValueForKey:]
   fun:-[_CFXPreferences(SearchListAdditions) assertEquivalence:ofIdentifiers:containers:cloudConfigurationURLs:]
   fun:__CFStringAppendFormatCore
   fun:__CFStringAppendFormatCore
   fun:-[CFPrefsSearchListSource addManagedSourceForIdentifier:user:]
}
{
   <insert_a_suppression_name_here>
   Memcheck:Leak
   match-leak-kinds: reachable
   fun:calloc
   fun:_ZL13getClass_implPKc
   fun:_ZN11objc_object27sidetable_clearDeallocatingEv
   fun:_ZL19_finishInitializingP10objc_classS0_
   fun:lookUpImpOrForward
   fun:-[CFPrefsSearchListSource alreadylocked_getDictionary:]
   fun:-[CFPrefsSearchListSource alreadylocked_getDictionary:]
   fun:-[CFPrefsSearchListSource alreadylocked_copyValueForKey:]
   fun:-[_CFXPreferences(SearchListAdditions) assertEquivalence:ofIdentifiers:containers:cloudConfigurationURLs:]
   fun:__CFStringAppendFormatCore
   fun:__CFStringAppendFormatCore
   fun:-[CFPrefsSearchListSource addManagedSourceForIdentifier:user:]
}
{
   <insert_a_suppression_name_here>
   Memcheck:Leak
   match-leak-kinds: reachable
   fun:malloc_zone_calloc
   fun:__NSSingleObjectArrayI_new
   fun:__CFStringCreateImmutableFunnel3
   fun:__NSSetI_new
   fun:__CFStringAppendFormatCore
   fun:__CFStringAppendFormatCore
   fun:-[CFPrefsSearchListSource alreadylocked_getDictionary:]
   fun:-[CFPrefsSearchListSource alreadylocked_getDictionary:]
   fun:-[CFPrefsSearchListSource alreadylocked_copyValueForKey:]
   fun:-[_CFXPreferences(SearchListAdditions) assertEquivalence:ofIdentifiers:containers:cloudConfigurationURLs:]
   fun:__CFStringAppendFormatCore
   fun:__CFStringAppendFormatCore
}
{
   <insert_a_suppression_name_here>
   Memcheck:Leak
   match-leak-kinds: reachable
   fun:calloc
   fun:_ZL12read_addressPmPK14dwarf_eh_basesh
   fun:CFArrayGetValues
   fun:-[CFPrefsSource alreadylocked_copyKeyList]
   fun:-[CFPrefsSource replaceAllValuesWithValues:forKeys:count:from:]
   fun:-[_CFXPreferences(SourceAdditions) withSourceForIdentifier:user:byHost:container:cloud:perform:]
   fun:-[_CFXPreferences(SearchListAdditions) assertEquivalence:ofIdentifiers:containers:cloudConfigurationURLs:]
   fun:__CFStringAppendFormatCore
   fun:__CFStringAppendFormatCore
   fun:-[CFPrefsSearchListSource addManagedSourceForIdentifier:user:]
   fun:__108-[_CFXPreferences(SearchListAdditions) withSearchListForIdentifier:container:cloudConfigurationURL:perform:]_block_invoke
   fun:__108-[_CFXPreferences(SearchListAdditions) withSearchListForIdentifier:container:cloudConfigurationURL:perform:]_block_invoke
}
{
   <insert_a_suppression_name_here>
   Memcheck:Leak
   match-leak-kinds: reachable
   fun:calloc
   fun:_object_remove_assocations
   fun:_ZNK8method_t11remappedImpEb
   fun:_ZN13list_array_ttI10property_t15property_list_t6RawPtrE11attachListsEPKPS1_j
   fun:_ZNK13method_list_t9duplicateEv
   fun:_ZN10class_rw_t8extAllocEPK10class_ro_tb
   fun:_ZN10class_rw_t8extAllocEPK10class_ro_tb
   fun:_ZN10class_rw_t8extAllocEPK10class_ro_tb
   fun:_ZL24realizeClassWithoutSwiftP10objc_classS0_
   fun:-[NSObject dealloc]
   fun:lookUpImpOrForward
   fun:_xpc_pipe_routine
}
{
   <insert_a_suppression_name_here>
   Memcheck:Leak
   match-leak-kinds: reachable
   fun:calloc
   fun:_ZL18cache_collect_freeP8bucket_tj
   fun:+[NSObject new]
   fun:__CFDictionaryCreateGeneric
   fun:_CFStringGetUserDefaultEncoding
   fun:_ZN16ImageLoaderMachO11doImageInitERKN11ImageLoader11LinkContextE
   fun:_ZN16ImageLoaderMachO16doInitializationERKN11ImageLoader11LinkContextE
   fun:_ZN11ImageLoader23recursiveInitializationERKNS_11LinkContextEjPKcRNS_21InitializerTimingListERNS_15UninitedUpwardsE
   fun:_ZN11ImageLoader23recursiveInitializationERKNS_11LinkContextEjPKcRNS_21InitializerTimingListERNS_15UninitedUpwardsE
   fun:_ZN11ImageLoader23recursiveInitializationERKNS_11LinkContextEjPKcRNS_21InitializerTimingListERNS_15UninitedUpwardsE
   fun:_ZN11ImageLoader23recursiveInitializationERKNS_11LinkContextEjPKcRNS_21InitializerTimingListERNS_15UninitedUpwardsE
   fun:_ZN11ImageLoader23recursiveInitializationERKNS_11LinkContextEjPKcRNS_21InitializerTimingListERNS_15UninitedUpwardsE
}
{
   <insert_a_suppression_name_here>
   Memcheck:Leak
   match-leak-kinds: reachable
   fun:calloc
   fun:_ZL18cache_collect_freeP8bucket_tj
   fun:+[NSObject new]
   fun:__CFDictionaryCreateGeneric
   fun:_CFStringGetUserDefaultEncoding
   fun:_ZN16ImageLoaderMachO11doImageInitERKN11ImageLoader11LinkContextE
   fun:_ZN16ImageLoaderMachO16doInitializationERKN11ImageLoader11LinkContextE
   fun:_ZN11ImageLoader23recursiveInitializationERKNS_11LinkContextEjPKcRNS_21InitializerTimingListERNS_15UninitedUpwardsE
   fun:_ZN11ImageLoader23recursiveInitializationERKNS_11LinkContextEjPKcRNS_21InitializerTimingListERNS_15UninitedUpwardsE
   fun:_ZN11ImageLoader23recursiveInitializationERKNS_11LinkContextEjPKcRNS_21InitializerTimingListERNS_15UninitedUpwardsE
   fun:_ZN11ImageLoader23recursiveInitializationERKNS_11LinkContextEjPKcRNS_21InitializerTimingListERNS_15UninitedUpwardsE
   fun:_ZN11ImageLoader23recursiveInitializationERKNS_11LinkContextEjPKcRNS_21InitializerTimingListERNS_15UninitedUpwardsE
}
{
   <insert_a_suppression_name_here>
   Memcheck:Leak
   match-leak-kinds: reachable
   fun:calloc
   fun:_ZL18cache_collect_freeP8bucket_tj
   fun:+[NSObject new]
   fun:__CFDictionaryCreateGeneric
   fun:_CFStringGetUserDefaultEncoding
   fun:_ZN16ImageLoaderMachO11doImageInitERKN11ImageLoader11LinkContextE
   fun:_ZN16ImageLoaderMachO16doInitializationERKN11ImageLoader11LinkContextE
   fun:_ZN11ImageLoader23recursiveInitializationERKNS_11LinkContextEjPKcRNS_21InitializerTimingListERNS_15UninitedUpwardsE
   fun:_ZN11ImageLoader23recursiveInitializationERKNS_11LinkContextEjPKcRNS_21InitializerTimingListERNS_15UninitedUpwardsE
   fun:_ZN11ImageLoader23recursiveInitializationERKNS_11LinkContextEjPKcRNS_21InitializerTimingListERNS_15UninitedUpwardsE
   fun:_ZN11ImageLoader23recursiveInitializationERKNS_11LinkContextEjPKcRNS_21InitializerTimingListERNS_15UninitedUpwardsE
   fun:_ZN11ImageLoader23recursiveInitializationERKNS_11LinkContextEjPKcRNS_21InitializerTimingListERNS_15UninitedUpwardsE
}
{
   <insert_a_suppression_name_here>
   Memcheck:Leak
   match-leak-kinds: reachable
   fun:calloc
   fun:_ZL18cache_collect_freeP8bucket_tj
   fun:+[NSObject new]
   fun:__CFDictionaryCreateGeneric
   fun:_CFStringGetUserDefaultEncoding
   fun:_ZN16ImageLoaderMachO11doImageInitERKN11ImageLoader11LinkContextE
   fun:_ZN16ImageLoaderMachO16doInitializationERKN11ImageLoader11LinkContextE
   fun:_ZN11ImageLoader23recursiveInitializationERKNS_11LinkContextEjPKcRNS_21InitializerTimingListERNS_15UninitedUpwardsE
   fun:_ZN11ImageLoader23recursiveInitializationERKNS_11LinkContextEjPKcRNS_21InitializerTimingListERNS_15UninitedUpwardsE
   fun:_ZN11ImageLoader23recursiveInitializationERKNS_11LinkContextEjPKcRNS_21InitializerTimingListERNS_15UninitedUpwardsE
   fun:_ZN11ImageLoader23recursiveInitializationERKNS_11LinkContextEjPKcRNS_21InitializerTimingListERNS_15UninitedUpwardsE
   fun:_ZN11ImageLoader23recursiveInitializationERKNS_11LinkContextEjPKcRNS_21InitializerTimingListERNS_15UninitedUpwardsE
}
{
   <insert_a_suppression_name_here>
   Memcheck:Leak
   match-leak-kinds: reachable
   fun:calloc
   fun:_ZL18cache_collect_freeP8bucket_tj
   fun:+[NSObject new]
   fun:__CFDictionaryCreateGeneric
   fun:_CFStringGetUserDefaultEncoding
   fun:_ZN16ImageLoaderMachO11doImageInitERKN11ImageLoader11LinkContextE
   fun:_ZN16ImageLoaderMachO16doInitializationERKN11ImageLoader11LinkContextE
   fun:_ZN11ImageLoader23recursiveInitializationERKNS_11LinkContextEjPKcRNS_21InitializerTimingListERNS_15UninitedUpwardsE
   fun:_ZN11ImageLoader23recursiveInitializationERKNS_11LinkContextEjPKcRNS_21InitializerTimingListERNS_15UninitedUpwardsE
   fun:_ZN11ImageLoader23recursiveInitializationERKNS_11LinkContextEjPKcRNS_21InitializerTimingListERNS_15UninitedUpwardsE
   fun:_ZN11ImageLoader23recursiveInitializationERKNS_11LinkContextEjPKcRNS_21InitializerTimingListERNS_15UninitedUpwardsE
   fun:_ZN11ImageLoader23recursiveInitializationERKNS_11LinkContextEjPKcRNS_21InitializerTimingListERNS_15UninitedUpwardsE
}
{
   <insert_a_suppression_name_here>
   Memcheck:Leak
   match-leak-kinds: reachable
   fun:calloc
   fun:_ZL18cache_collect_freeP8bucket_tj
   fun:+[NSObject new]
   fun:__CFDictionaryCreateGeneric
   fun:_CFStringGetUserDefaultEncoding
   fun:_ZN16ImageLoaderMachO11doImageInitERKN11ImageLoader11LinkContextE
   fun:_ZN16ImageLoaderMachO16doInitializationERKN11ImageLoader11LinkContextE
   fun:_ZN11ImageLoader23recursiveInitializationERKNS_11LinkContextEjPKcRNS_21InitializerTimingListERNS_15UninitedUpwardsE
   fun:_ZN11ImageLoader23recursiveInitializationERKNS_11LinkContextEjPKcRNS_21InitializerTimingListERNS_15UninitedUpwardsE
   fun:_ZN11ImageLoader23recursiveInitializationERKNS_11LinkContextEjPKcRNS_21InitializerTimingListERNS_15UninitedUpwardsE
   fun:_ZN11ImageLoader23recursiveInitializationERKNS_11LinkContextEjPKcRNS_21InitializerTimingListERNS_15UninitedUpwardsE
   fun:_ZN11ImageLoader23recursiveInitializationERKNS_11LinkContextEjPKcRNS_21InitializerTimingListERNS_15UninitedUpwardsE
}
{
   <insert_a_suppression_name_here>
   Memcheck:Leak
   match-leak-kinds: reachable
   fun:calloc
   fun:_ZL18cache_collect_freeP8bucket_tj
   fun:+[NSObject new]
   fun:CFBasicHashCreate
   fun:_CFStringGetUserDefaultEncoding
   fun:_ZN16ImageLoaderMachO11doImageInitERKN11ImageLoader11LinkContextE
   fun:_ZN16ImageLoaderMachO16doInitializationERKN11ImageLoader11LinkContextE
   fun:_ZN11ImageLoader23recursiveInitializationERKNS_11LinkContextEjPKcRNS_21InitializerTimingListERNS_15UninitedUpwardsE
   fun:_ZN11ImageLoader23recursiveInitializationERKNS_11LinkContextEjPKcRNS_21InitializerTimingListERNS_15UninitedUpwardsE
   fun:_ZN11ImageLoader23recursiveInitializationERKNS_11LinkContextEjPKcRNS_21InitializerTimingListERNS_15UninitedUpwardsE
   fun:_ZN11ImageLoader23recursiveInitializationERKNS_11LinkContextEjPKcRNS_21InitializerTimingListERNS_15UninitedUpwardsE
   fun:_ZN11ImageLoader23recursiveInitializationERKNS_11LinkContextEjPKcRNS_21InitializerTimingListERNS_15UninitedUpwardsE
}
{
   <insert_a_suppression_name_here>
   Memcheck:Leak
   match-leak-kinds: reachable
   fun:calloc
   fun:_ZL18cache_collect_freeP8bucket_tj
   fun:+[NSObject new]
   fun:CFBasicHashCreate
   fun:_CFStringGetUserDefaultEncoding
   fun:_ZN16ImageLoaderMachO11doImageInitERKN11ImageLoader11LinkContextE
   fun:_ZN16ImageLoaderMachO16doInitializationERKN11ImageLoader11LinkContextE
   fun:_ZN11ImageLoader23recursiveInitializationERKNS_11LinkContextEjPKcRNS_21InitializerTimingListERNS_15UninitedUpwardsE
   fun:_ZN11ImageLoader23recursiveInitializationERKNS_11LinkContextEjPKcRNS_21InitializerTimingListERNS_15UninitedUpwardsE
   fun:_ZN11ImageLoader23recursiveInitializationERKNS_11LinkContextEjPKcRNS_21InitializerTimingListERNS_15UninitedUpwardsE
   fun:_ZN11ImageLoader23recursiveInitializationERKNS_11LinkContextEjPKcRNS_21InitializerTimingListERNS_15UninitedUpwardsE
   fun:_ZN11ImageLoader23recursiveInitializationERKNS_11LinkContextEjPKcRNS_21InitializerTimingListERNS_15UninitedUpwardsE
}
{
   <insert_a_suppression_name_here>
   Memcheck:Leak
   match-leak-kinds: reachable
   fun:calloc
   fun:_ZL18cache_collect_freeP8bucket_tj
   fun:+[NSObject new]
   fun:CFBasicHashCreate
   fun:_CFStringGetUserDefaultEncoding
   fun:_ZN16ImageLoaderMachO11doImageInitERKN11ImageLoader11LinkContextE
   fun:_ZN16ImageLoaderMachO16doInitializationERKN11ImageLoader11LinkContextE
   fun:_ZN11ImageLoader23recursiveInitializationERKNS_11LinkContextEjPKcRNS_21InitializerTimingListERNS_15UninitedUpwardsE
   fun:_ZN11ImageLoader23recursiveInitializationERKNS_11LinkContextEjPKcRNS_21InitializerTimingListERNS_15UninitedUpwardsE
   fun:_ZN11ImageLoader23recursiveInitializationERKNS_11LinkContextEjPKcRNS_21InitializerTimingListERNS_15UninitedUpwardsE
   fun:_ZN11ImageLoader23recursiveInitializationERKNS_11LinkContextEjPKcRNS_21InitializerTimingListERNS_15UninitedUpwardsE
   fun:_ZN11ImageLoader23recursiveInitializationERKNS_11LinkContextEjPKcRNS_21InitializerTimingListERNS_15UninitedUpwardsE
}
{
   <insert_a_suppression_name_here>
   Memcheck:Leak
   match-leak-kinds: reachable
   fun:calloc
   fun:_ZL18cache_collect_freeP8bucket_tj
   fun:+[NSObject new]
   fun:CFBasicHashCreate
   fun:_CFStringGetUserDefaultEncoding
   fun:_ZN16ImageLoaderMachO11doImageInitERKN11ImageLoader11LinkContextE
   fun:_ZN16ImageLoaderMachO16doInitializationERKN11ImageLoader11LinkContextE
   fun:_ZN11ImageLoader23recursiveInitializationERKNS_11LinkContextEjPKcRNS_21InitializerTimingListERNS_15UninitedUpwardsE
   fun:_ZN11ImageLoader23recursiveInitializationERKNS_11LinkContextEjPKcRNS_21InitializerTimingListERNS_15UninitedUpwardsE
   fun:_ZN11ImageLoader23recursiveInitializationERKNS_11LinkContextEjPKcRNS_21InitializerTimingListERNS_15UninitedUpwardsE
   fun:_ZN11ImageLoader23recursiveInitializationERKNS_11LinkContextEjPKcRNS_21InitializerTimingListERNS_15UninitedUpwardsE
   fun:_ZN11ImageLoader23recursiveInitializationERKNS_11LinkContextEjPKcRNS_21InitializerTimingListERNS_15UninitedUpwardsE
}
{
   <insert_a_suppression_name_here>
   Memcheck:Leak
   match-leak-kinds: reachable
   fun:calloc
   fun:_ZL18cache_collect_freeP8bucket_tj
   fun:+[NSObject new]
   fun:CFBasicHashCreate
   fun:_CFStringGetUserDefaultEncoding
   fun:_ZN16ImageLoaderMachO11doImageInitERKN11ImageLoader11LinkContextE
   fun:_ZN16ImageLoaderMachO16doInitializationERKN11ImageLoader11LinkContextE
   fun:_ZN11ImageLoader23recursiveInitializationERKNS_11LinkContextEjPKcRNS_21InitializerTimingListERNS_15UninitedUpwardsE
   fun:_ZN11ImageLoader23recursiveInitializationERKNS_11LinkContextEjPKcRNS_21InitializerTimingListERNS_15UninitedUpwardsE
   fun:_ZN11ImageLoader23recursiveInitializationERKNS_11LinkContextEjPKcRNS_21InitializerTimingListERNS_15UninitedUpwardsE
   fun:_ZN11ImageLoader23recursiveInitializationERKNS_11LinkContextEjPKcRNS_21InitializerTimingListERNS_15UninitedUpwardsE
   fun:_ZN11ImageLoader23recursiveInitializationERKNS_11LinkContextEjPKcRNS_21InitializerTimingListERNS_15UninitedUpwardsE
}
{
   <insert_a_suppression_name_here>
   Memcheck:Leak
   match-leak-kinds: reachable
   fun:calloc
   fun:_ZL18cache_collect_freeP8bucket_tj
   fun:+[NSObject new]
   fun:CFBasicHashCreate
   fun:_CFStringGetUserDefaultEncoding
   fun:_ZN16ImageLoaderMachO11doImageInitERKN11ImageLoader11LinkContextE
   fun:_ZN16ImageLoaderMachO16doInitializationERKN11ImageLoader11LinkContextE
   fun:_ZN11ImageLoader23recursiveInitializationERKNS_11LinkContextEjPKcRNS_21InitializerTimingListERNS_15UninitedUpwardsE
   fun:_ZN11ImageLoader23recursiveInitializationERKNS_11LinkContextEjPKcRNS_21InitializerTimingListERNS_15UninitedUpwardsE
   fun:_ZN11ImageLoader23recursiveInitializationERKNS_11LinkContextEjPKcRNS_21InitializerTimingListERNS_15UninitedUpwardsE
   fun:_ZN11ImageLoader23recursiveInitializationERKNS_11LinkContextEjPKcRNS_21InitializerTimingListERNS_15UninitedUpwardsE
   fun:_ZN11ImageLoader23recursiveInitializationERKNS_11LinkContextEjPKcRNS_21InitializerTimingListERNS_15UninitedUpwardsE
}
{
   <insert_a_suppression_name_here>
   Memcheck:Leak
   match-leak-kinds: reachable
   fun:calloc
   fun:__si_module_static_file_block_invoke
   fun:_dispatch_client_callout
   fun:_dispatch_once_callout
   fun:si_module_static_file
   fun:si_module_with_name
   fun:si_module_config_modules_for_category
   fun:__si_module_static_search_block_invoke
   fun:_dispatch_client_callout
   fun:_dispatch_once_callout
   fun:si_module_static_search
   fun:si_module_with_name
}
{
   <insert_a_suppression_name_here>
   Memcheck:Leak
   match-leak-kinds: reachable
   fun:calloc
   fun:_ZL12read_addressPmPK14dwarf_eh_basesh
   fun:-[_CFXPreferences(SourceAdditions) withNamedVolatileSources:]
   fun:_CFPrefsGetCacheStringForBundleID
   fun:_dispatch_client_callout
   fun:_dispatch_once_callout
   fun:_CFPrefsGetCacheStringForBundleID
   fun:-[NSUserDefaults(NSUserDefaults) init]
   fun:+[NSUserDefaults(NSUserDefaults) standardUserDefaults]
   fun:+[NSApplication initialize]
   fun:_objc_addWillInitializeClassFunc
   fun:_ZN13list_array_ttI8method_t13method_list_t24method_list_t_authed_ptrE11attachListsEPKPS1_j
}
{
   <insert_a_suppression_name_here>
   Memcheck:Leak
   match-leak-kinds: reachable
   fun:calloc
   fun:_dispatch_calloc
   fun:_dispatch_unote_create
   fun:_dispatch_source_proc_create
   fun:dispatch_source_create
   fun:_notify_fork_child
   fun:notify_monitor_file
   fun:notify_register_dispatch
   fun:__96-[_CFXPreferences(SourceAdditions) withSourceForIdentifier:user:byHost:container:cloud:perform:]_block_invoke.213
   fun:_dispatch_client_callout
   fun:_dispatch_once_callout
   fun:_CFPrefsExtractQuadrupleFromPathIfPossible
}
{
   <insert_a_suppression_name_here>
   Memcheck:Leak
   match-leak-kinds: reachable
   fun:calloc
   fun:_dispatch_calloc
   fun:_dispatch_unote_create
   fun:dispatch_source_create
   fun:_dispatch_kq_poll
   fun:_dispatch_kq_drain
   fun:_dispatch_kq_unote_update
   fun:_dispatch_source_install
   fun:_dispatch_source_activate
   fun:_dispatch_lane_resume_activate
   fun:_notify_fork_child
   fun:notify_monitor_file
}
{
   <insert_a_suppression_name_here>
   Memcheck:Leak
   match-leak-kinds: reachable
   fun:calloc
   fun:_dispatch_calloc
   fun:_dispatch_unote_create
   fun:dispatch_source_create
   fun:_notify_fork_child
   fun:notify_monitor_file
   fun:notify_register_dispatch
   fun:__96-[_CFXPreferences(SourceAdditions) withSourceForIdentifier:user:byHost:container:cloud:perform:]_block_invoke.213
   fun:_dispatch_client_callout
   fun:_dispatch_once_callout
   fun:_CFPrefsExtractQuadrupleFromPathIfPossible
   fun:_CFPrefsExtractQuadrupleFromPathIfPossible
}
{
   <insert_a_suppression_name_here>
   Memcheck:Leak
   match-leak-kinds: possible
   fun:malloc
   fun:_ZL24realizeClassWithoutSwiftP10objc_classS0_
   fun:_ZL32adjustCustomFlagsForMethodChangeP10objc_classP8method_t
   fun:_ZL32adjustCustomFlagsForMethodChangeP10objc_classP8method_t
   fun:_ZL16attachCategoriesP10objc_classPK21locstamped_category_tji
   fun:_ZN10objc_class11mangledNameEv
   fun:_ZN10objc_class11mangledNameEv
   fun:_ZN10objc_class11mangledNameEv
   fun:_ZL16addRemappedClassP10objc_classS0_
   fun:objc_initializeClassPair
   fun:objc_registerClassPair
   fun:__CFStringCreateImmutableFunnel3
}
{
   <insert_a_suppression_name_here>
   Memcheck:Leak
   match-leak-kinds: possible
   fun:malloc
   fun:_ZL24realizeClassWithoutSwiftP10objc_classS0_
   fun:_ZL32adjustCustomFlagsForMethodChangeP10objc_classP8method_t
   fun:_ZL32adjustCustomFlagsForMethodChangeP10objc_classP8method_t
   fun:_ZL16attachCategoriesP10objc_classPK21locstamped_category_tji
   fun:_ZL16addRemappedClassP10objc_classS0_
   fun:objc_initializeClassPair
   fun:objc_registerClassPair
   fun:__CFStringCreateImmutableFunnel3
   fun:__CFInitialize
   fun:_ZN16ImageLoaderMachO11doImageInitERKN11ImageLoader11LinkContextE
   fun:_ZN16ImageLoaderMachO16doInitializationERKN11ImageLoader11LinkContextE
}
{
   <insert_a_suppression_name_here>
   Memcheck:Leak
   match-leak-kinds: possible
   fun:malloc
   fun:_ZL24realizeClassWithoutSwiftP10objc_classS0_
   fun:_ZL32adjustCustomFlagsForMethodChangeP10objc_classP8method_t
   fun:_ZL32adjustCustomFlagsForMethodChangeP10objc_classP8method_t
   fun:_ZL16attachCategoriesP10objc_classPK21locstamped_category_tji
   fun:_ZN10objc_class11mangledNameEv
   fun:_ZN10objc_class11mangledNameEv
   fun:_ZL16addRemappedClassP10objc_classS0_
   fun:objc_initializeClassPair
   fun:_NSToDoAtProcessStart
   fun:_NSInitializePlatform
   fun:objc_msgLookup_fpret
}
{
   <insert_a_suppression_name_here>
   Memcheck:Leak
   match-leak-kinds: reachable
   fun:calloc
   fun:objc_msgSend_stret
   fun:_os_object_alloc_realized
   fun:_xpc_pipe_create
   fun:xpc_pipe_create
   fun:_od_xpc_pipe
   fun:_od_running
   fun:ds_user_byuid
   fun:si_user_byuid
   fun:search_item_bynumber
   fun:search_user_byuid
   fun:si_user_byuid
}
{
   <insert_a_suppression_name_here>
   Memcheck:Leak
   match-leak-kinds: reachable
   fun:malloc_zone_calloc
   fun:__NSSingleObjectArrayI_new
   fun:_CFBundleGetBundleVersionForURL
   fun:_CFBundleCreate
   fun:CFStringFindWithOptionsAndLocale
   fun:-[CFPrefsSource alreadylocked_copyKeyList]
   fun:-[CFPrefsSearchListSource addManagedSourceForIdentifier:user:]
   fun:__108-[_CFXPreferences(SearchListAdditions) withSearchListForIdentifier:container:cloudConfigurationURL:perform:]_block_invoke
   fun:__108-[_CFXPreferences(SearchListAdditions) withSearchListForIdentifier:container:cloudConfigurationURL:perform:]_block_invoke
   fun:-[NSUserDefaults(NSUserDefaults) init]
   fun:+[NSUserDefaults(NSUserDefaults) standardUserDefaults]
   fun:+[NSApplication initialize]
}
{
   <insert_a_suppression_name_here>
   Memcheck:Leak
   match-leak-kinds: reachable
   fun:calloc
   fun:objc_msgSend_stret
   fun:_os_object_alloc_realized
   fun:xpc_dictionary_create
   fun:-[_CFXPreferences _copyDaemonConnectionSettingUpIfNecessaryForRole:]
   fun:-[CFPrefsPlistSource createSynchronizeMessage]
   fun:__isOnDirectModeBlackList_block_invoke
   fun:-[CFPrefsPlistSource createRequestNewContentMessageForDaemon:]
   fun:generationCountFromListOfSources
   fun:-[CFPrefsSearchListSource alreadylocked_generationCountFromListOfSources:count:]
   fun:-[CFPrefsSearchListSource alreadylocked_generationCountFromListOfSources:count:]
   fun:__CFStringAppendFormatCore
}
{
   <insert_a_suppression_name_here>
   Memcheck:Leak
   match-leak-kinds: reachable
   fun:calloc
   fun:objc_msgSend_stret
   fun:_os_object_alloc_realized
   fun:xpc_dictionary_create
   fun:-[_CFXPreferences _copyDaemonConnectionSettingUpIfNecessaryForRole:]
   fun:-[CFPrefsPlistSource createSynchronizeMessage]
   fun:__isOnDirectModeBlackList_block_invoke
   fun:-[CFPrefsPlistSource createRequestNewContentMessageForDaemon:]
   fun:generationCountFromListOfSources
   fun:-[CFPrefsSearchListSource alreadylocked_generationCountFromListOfSources:count:]
   fun:-[CFPrefsSearchListSource alreadylocked_generationCountFromListOfSources:count:]
   fun:__CFStringAppendFormatCore
}
{
   <insert_a_suppression_name_here>
   Memcheck:Leak
   match-leak-kinds: reachable
   fun:calloc
   fun:objc_msgSend_stret
   fun:_os_object_alloc_realized
   fun:xpc_dictionary_create
   fun:_vproc_create_request
   fun:vproc_swap_complex
   fun:vproc_swap_string
   fun:-[CFPrefsPlistSource handleReply:toRequestNewDataMessage:onConnection:retryCount:error:]
   fun:_dispatch_client_callout
   fun:_dispatch_once_callout
   fun:-[CFPrefsPlistSource handleReply:toRequestNewDataMessage:onConnection:retryCount:error:]
   fun:-[CFPrefsPlistSource handleReply:toRequestNewDataMessage:onConnection:retryCount:error:]
}
{
   <insert_a_suppression_name_here>
   Memcheck:Leak
   match-leak-kinds: possible
   fun:malloc
   fun:_ZL24realizeClassWithoutSwiftP10objc_classS0_
   fun:_ZL32adjustCustomFlagsForMethodChangeP10objc_classP8method_t
   fun:_ZL32adjustCustomFlagsForMethodChangeP10objc_classP8method_t
   fun:_ZL16attachCategoriesP10objc_classPK21locstamped_category_tji
   fun:_ZN10objc_class11mangledNameEv
   fun:_ZN10objc_class11mangledNameEv
   fun:_ZL16addRemappedClassP10objc_classS0_
   fun:objc_initializeClassPair
   fun:objc_registerClassPair
   fun:__CFStringCreateImmutableFunnel3
   fun:__CFInitialize
}
{
   <insert_a_suppression_name_here>
   Memcheck:Leak
   match-leak-kinds: possible
   fun:malloc
   fun:_ZL24realizeClassWithoutSwiftP10objc_classS0_
   fun:_ZL32adjustCustomFlagsForMethodChangeP10objc_classP8method_t
   fun:_ZL32adjustCustomFlagsForMethodChangeP10objc_classP8method_t
   fun:_ZL16attachCategoriesP10objc_classPK21locstamped_category_tji
   fun:_ZN10objc_class11mangledNameEv
   fun:_ZL16addRemappedClassP10objc_classS0_
   fun:objc_initializeClassPair
   fun:_NSToDoAtProcessStart
   fun:_NSInitializePlatform
   fun:objc_msgLookup_fpret
   fun:_ZN4dyldL12notifySingleE17dyld_image_statesPK11ImageLoaderPNS1_21InitializerTimingListE
}
{
   <insert_a_suppression_name_here>
   Memcheck:Leak
   match-leak-kinds: possible
   fun:calloc
   fun:_ZL33realizeClassMaybeSwiftMaybeRelockP10objc_classR8mutex_ttILb0EEb
   fun:_ZL32adjustCustomFlagsForMethodChangeP10objc_classP8method_t
   fun:_ZL32adjustCustomFlagsForMethodChangeP10objc_classP8method_t
   fun:_ZL16attachCategoriesP10objc_classPK21locstamped_category_tji
   fun:_ZN10objc_class11mangledNameEv
   fun:_ZN10objc_class11mangledNameEv
   fun:_ZN10objc_class11mangledNameEv
   fun:_ZL16addRemappedClassP10objc_classS0_
   fun:objc_initializeClassPair
   fun:objc_registerClassPair
   fun:__CFStringCreateImmutableFunnel3
}
{
   <insert_a_suppression_name_here>
   Memcheck:Leak
   match-leak-kinds: possible
   fun:malloc
   fun:_ZL24realizeClassWithoutSwiftP10objc_classS0_
   fun:_ZL32adjustCustomFlagsForMethodChangeP10objc_classP8method_t
   fun:property_copyAttributeValue
   fun:_ZL10free_classP10objc_class
   fun:objc_msgLookup
   fun:_ZN4dyldL12notifySingleE17dyld_image_statesPK11ImageLoaderPNS1_21InitializerTimingListE
   fun:_ZN11ImageLoader23recursiveInitializationERKNS_11LinkContextEjPKcRNS_21InitializerTimingListERNS_15UninitedUpwardsE
   fun:_ZN11ImageLoader19processInitializersERKNS_11LinkContextEjRNS_21InitializerTimingListERNS_15UninitedUpwardsE
   fun:_ZN11ImageLoader19processInitializersERKNS_11LinkContextEjRNS_21InitializerTimingListERNS_15UninitedUpwardsE
   fun:_ZN11ImageLoader15runInitializersERKNS_11LinkContextERNS_21InitializerTimingListE
   fun:_ZN4dyld24initializeMainExecutableEv
}
{
   <insert_a_suppression_name_here>
   Memcheck:Leak
   match-leak-kinds: possible
   fun:malloc
   fun:_ZL24realizeClassWithoutSwiftP10objc_classS0_
   fun:_ZL32adjustCustomFlagsForMethodChangeP10objc_classP8method_t
   fun:property_copyAttributeValue
   fun:_ZL10free_classP10objc_class
   fun:objc_msgLookup
   fun:_ZN4dyldL12notifySingleE17dyld_image_statesPK11ImageLoaderPNS1_21InitializerTimingListE
   fun:_ZN11ImageLoader23recursiveInitializationERKNS_11LinkContextEjPKcRNS_21InitializerTimingListERNS_15UninitedUpwardsE
   fun:_ZN11ImageLoader19processInitializersERKNS_11LinkContextEjRNS_21InitializerTimingListERNS_15UninitedUpwardsE
   fun:_ZN11ImageLoader19processInitializersERKNS_11LinkContextEjRNS_21InitializerTimingListERNS_15UninitedUpwardsE
   fun:_ZN11ImageLoader15runInitializersERKNS_11LinkContextERNS_21InitializerTimingListE
   fun:_ZN4dyld24initializeMainExecutableEv
}
{
   <insert_a_suppression_name_here>
   Memcheck:Leak
   match-leak-kinds: reachable
   fun:malloc
   fun:strdup
   fun:xpc_string_create
   fun:xpc_dictionary_set_string
   fun:-[CFPrefsSearchListSource synchronouslySendDaemonMessage:andAgentMessage:andDirectMessage:replyHandler:]
   fun:-[_CFXPreferences currentUserHasInvalidHomeDirectory]
   fun:_CFPrefsEncodeValueIntoMessage
   fun:-[CFPrefsPlistSource createSynchronizeMessage]
   fun:-[CFPrefsPlistSource volatilizeIfInvalidHomeDir]
   fun:__isOnDirectModeBlackList_block_invoke
   fun:-[CFPrefsPlistSource createRequestNewContentMessageForDaemon:]
   fun:generationCountFromListOfSources
}
{
   <insert_a_suppression_name_here>
   Memcheck:Leak
   match-leak-kinds: reachable
   fun:calloc
   fun:objc_msgSend_stret
   fun:NSAllocateObject
   fun:+[NSPathStore2 pathStoreWithCharacters:length:]
   fun:-[NSString(NSPathUtilities) _stringByStandardizingPathUsingCache:]
   fun:-[NSProcessInfo arguments]
   fun:-[NSUserDefaults(NSUserDefaults) init]
   fun:+[NSUserDefaults(NSUserDefaults) standardUserDefaults]
   fun:+[NSApplication initialize]
   fun:_objc_addWillInitializeClassFunc
   fun:_ZN13list_array_ttI8method_t13method_list_t24method_list_t_authed_ptrE11attachListsEPKPS1_j
   fun:_ZL24realizeClassWithoutSwiftP10objc_classS0_
}
{
   <insert_a_suppression_name_here>
   Memcheck:Leak
   match-leak-kinds: reachable
   fun:malloc
   fun:-[__NSDictionaryM __setObject:forKey:]
   fun:-[_CFXPreferences(SourceAdditions) withSourceForIdentifier:user:byHost:container:cloud:perform:]
   fun:_CFPrefsExtractQuadrupleFromPathIfPossible
   fun:_CFPrefsExtractQuadrupleFromPathIfPossible
   fun:-[_CFXPreferences(SearchListAdditions) assertEquivalence:ofIdentifiers:containers:cloudConfigurationURLs:]
   fun:__CFStringAppendFormatCore
   fun:__CFStringAppendFormatCore
   fun:-[CFPrefsSearchListSource addManagedSourceForIdentifier:user:]
   fun:__108-[_CFXPreferences(SearchListAdditions) withSearchListForIdentifier:container:cloudConfigurationURL:perform:]_block_invoke
   fun:__108-[_CFXPreferences(SearchListAdditions) withSearchListForIdentifier:container:cloudConfigurationURL:perform:]_block_invoke
   fun:-[NSUserDefaults(NSUserDefaults) init]
}
{
   <insert_a_suppression_name_here>
   Memcheck:Leak
   match-leak-kinds: possible
   fun:calloc
   fun:_notify_fork_child
   fun:notify_register_check
   fun:__si_module_static_ds_block_invoke
   fun:_dispatch_client_callout
   fun:_dispatch_once_callout
   fun:si_module_static_ds
   fun:si_module_with_name
   fun:si_module_config_modules_for_category
   fun:__si_module_static_search_block_invoke
   fun:_dispatch_client_callout
   fun:_dispatch_once_callout
}
{
   <insert_a_suppression_name_here>
   Memcheck:Leak
   match-leak-kinds: possible
   fun:calloc
   fun:_notify_fork_child
   fun:notify_register_check
   fun:__si_module_static_ds_block_invoke
   fun:_dispatch_client_callout
   fun:_dispatch_once_callout
   fun:si_module_static_ds
   fun:si_module_with_name
   fun:si_module_config_modules_for_category
   fun:__si_module_static_search_block_invoke
   fun:_dispatch_client_callout
   fun:_dispatch_once_callout
}
{
   <insert_a_suppression_name_here>
   Memcheck:Leak
   match-leak-kinds: possible
   fun:calloc
   fun:_notify_fork_child
   fun:notify_register_check
   fun:__si_module_static_ds_block_invoke
   fun:_dispatch_client_callout
   fun:_dispatch_once_callout
   fun:si_module_static_ds
   fun:si_module_with_name
   fun:si_module_config_modules_for_category
   fun:__si_module_static_search_block_invoke
   fun:_dispatch_client_callout
   fun:_dispatch_once_callout
}
{
   <insert_a_suppression_name_here>
   Memcheck:Leak
   match-leak-kinds: possible
   fun:calloc
   fun:_notify_fork_child
   fun:notify_register_check
   fun:__si_module_static_ds_block_invoke
   fun:_dispatch_client_callout
   fun:_dispatch_once_callout
   fun:si_module_static_ds
   fun:si_module_with_name
   fun:si_module_config_modules_for_category
   fun:__si_module_static_search_block_invoke
   fun:_dispatch_client_callout
   fun:_dispatch_once_callout
}
{
   <insert_a_suppression_name_here>
   Memcheck:Leak
   match-leak-kinds: possible
   fun:calloc
   fun:_notify_fork_child
   fun:notify_register_check
   fun:_os_trace_prefs_and_mode_refresh_slow
   fun:_os_activity_create_addr
   fun:ds_user_byuid
   fun:si_user_byuid
   fun:search_item_bynumber
   fun:search_user_byuid
   fun:si_user_byuid
   fun:getpwuid_r
   fun:_CFRuntimeBridgeClasses
}
{
   <insert_a_suppression_name_here>
   Memcheck:Leak
   match-leak-kinds: possible
   fun:malloc
   fun:_ZL24realizeClassWithoutSwiftP10objc_classS0_
   fun:_ZL32adjustCustomFlagsForMethodChangeP10objc_classP8method_t
   fun:_ZL32adjustCustomFlagsForMethodChangeP10objc_classP8method_t
   fun:_ZL16attachCategoriesP10objc_classPK21locstamped_category_tji
   fun:_ZN10objc_class11mangledNameEv
   fun:_ZL16addRemappedClassP10objc_classS0_
   fun:objc_initializeClassPair
   fun:_NSToDoAtProcessStart
   fun:_NSInitializePlatform
   fun:objc_msgLookup_fpret
   fun:_ZN4dyldL12notifySingleE17dyld_image_statesPK11ImageLoaderPNS1_21InitializerTimingListE
}
{
   <insert_a_suppression_name_here>
   Memcheck:Leak
   match-leak-kinds: possible
   fun:calloc
   fun:notify_register_mach_port
   fun:notify_register_dispatch
   fun:__96-[_CFXPreferences(SourceAdditions) withSourceForIdentifier:user:byHost:container:cloud:perform:]_block_invoke.213
   fun:_dispatch_client_callout
   fun:_dispatch_once_callout
   fun:_CFPrefsExtractQuadrupleFromPathIfPossible
   fun:_CFPrefsExtractQuadrupleFromPathIfPossible
   fun:__destroy_helper_block_e8_32o40r48r
   fun:__CFStringAppendFormatCore
   fun:__CFStringAppendFormatCore
   fun:-[CFPrefsSearchListSource addManagedSourceForIdentifier:user:]
}
{
   <insert_a_suppression_name_here>
   Memcheck:Leak
   match-leak-kinds: possible
   fun:calloc
   fun:_notify_fork_child
   fun:notify_register_mach_port
   fun:notify_register_dispatch
   fun:__96-[_CFXPreferences(SourceAdditions) withSourceForIdentifier:user:byHost:container:cloud:perform:]_block_invoke.213
   fun:_dispatch_client_callout
   fun:_dispatch_once_callout
   fun:_CFPrefsExtractQuadrupleFromPathIfPossible
   fun:_CFPrefsExtractQuadrupleFromPathIfPossible
   fun:__destroy_helper_block_e8_32o40r48r
   fun:__CFStringAppendFormatCore
   fun:__CFStringAppendFormatCore
}
{
   <insert_a_suppression_name_here>
   Memcheck:Leak
   match-leak-kinds: reachable
   fun:malloc
   fun:_xpc_malloc
   fun:_xpc_dictionary_insert
   fun:xpc_dictionary_set_bool
   fun:-[_CFXPreferences currentUserHasInvalidHomeDirectory]
   fun:_CFPrefsEncodeValueIntoMessage
   fun:-[CFPrefsPlistSource createSynchronizeMessage]
   fun:-[CFPrefsPlistSource volatilizeIfInvalidHomeDir]
   fun:__isOnDirectModeBlackList_block_invoke
   fun:-[CFPrefsPlistSource createRequestNewContentMessageForDaemon:]
   fun:generationCountFromListOfSources
   fun:-[CFPrefsSearchListSource alreadylocked_generationCountFromListOfSources:count:]
}
{
   <insert_a_suppression_name_here>
   Memcheck:Leak
   match-leak-kinds: reachable
   fun:calloc
   fun:_ZL13getClass_implPKc
   fun:_ZN11objc_object27sidetable_clearDeallocatingEv
   fun:_ZL19_finishInitializingP10objc_classS0_
   fun:lookUpImpOrForward
   fun:_li_auto_os_release
   fun:ds_user_byuid
   fun:si_user_byuid
   fun:search_item_bynumber
   fun:search_user_byuid
   fun:si_user_byuid
   fun:getpwuid_r
}
{
   <insert_a_suppression_name_here>
   Memcheck:Leak
   match-leak-kinds: reachable
   fun:calloc
   fun:_ZL13getClass_implPKc
   fun:_ZN11objc_object27sidetable_clearDeallocatingEv
   fun:_ZL19_finishInitializingP10objc_classS0_
   fun:lookUpImpOrForward
   fun:weak_register_no_lock
   fun:-[NSThread init]
   fun:____NSThreads_block_invoke
   fun:_dispatch_client_callout
   fun:_dispatch_once_callout
   fun:_NSThreadGet0
   fun:_NSInitializePlatform
}
{
   <insert_a_suppression_name_here>
   Memcheck:Leak
   match-leak-kinds: reachable
   fun:calloc
   fun:_ZL13getClass_implPKc
   fun:_ZN11objc_object27sidetable_clearDeallocatingEv
   fun:_ZL19_finishInitializingP10objc_classS0_
   fun:lookUpImpOrForward
   fun:-[NSUserDefaults(NSUserDefaults) init]
   fun:+[NSUserDefaults(NSUserDefaults) standardUserDefaults]
   fun:+[NSApplication initialize]
   fun:_objc_addWillInitializeClassFunc
   fun:_ZN13list_array_ttI8method_t13method_list_t24method_list_t_authed_ptrE11attachListsEPKPS1_j
   fun:_ZL24realizeClassWithoutSwiftP10objc_classS0_
   fun:-[NSObject dealloc]
}
{
   <insert_a_suppression_name_here>
   Memcheck:Leak
   match-leak-kinds: reachable
   fun:calloc
   fun:_ZL13getClass_implPKc
   fun:_ZN11objc_object27sidetable_clearDeallocatingEv
   fun:_ZL19_finishInitializingP10objc_classS0_
   fun:lookUpImpOrForward
   fun:weak_register_no_lock
   fun:-[NSUserDefaults(NSUserDefaults) init]
   fun:+[NSUserDefaults(NSUserDefaults) standardUserDefaults]
   fun:+[NSApplication initialize]
   fun:_objc_addWillInitializeClassFunc
   fun:_ZN13list_array_ttI8method_t13method_list_t24method_list_t_authed_ptrE11attachListsEPKPS1_j
   fun:_ZL24realizeClassWithoutSwiftP10objc_classS0_
}
{
   <insert_a_suppression_name_here>
   Memcheck:Leak
   match-leak-kinds: reachable
   fun:calloc
   fun:_ZL13getClass_implPKc
   fun:_ZN11objc_object27sidetable_clearDeallocatingEv
   fun:_ZL19_finishInitializingP10objc_classS0_
   fun:lookUpImpOrForward
   fun:-[NSUserDefaults(NSUserDefaults) init]
   fun:+[NSUserDefaults(NSUserDefaults) standardUserDefaults]
   fun:+[NSApplication initialize]
   fun:_objc_addWillInitializeClassFunc
   fun:_ZN13list_array_ttI8method_t13method_list_t24method_list_t_authed_ptrE11attachListsEPKPS1_j
   fun:_ZL24realizeClassWithoutSwiftP10objc_classS0_
   fun:-[NSObject dealloc]
}
{
   <insert_a_suppression_name_here>
   Memcheck:Leak
   match-leak-kinds: reachable
   fun:calloc
   fun:_ZL13getClass_implPKc
   fun:_ZN11objc_object27sidetable_clearDeallocatingEv
   fun:_ZL19_finishInitializingP10objc_classS0_
   fun:lookUpImpOrForward
   fun:-[NSProcessInfo arguments]
   fun:-[NSUserDefaults(NSUserDefaults) init]
   fun:+[NSUserDefaults(NSUserDefaults) standardUserDefaults]
   fun:+[NSApplication initialize]
   fun:_objc_addWillInitializeClassFunc
   fun:_ZN13list_array_ttI8method_t13method_list_t24method_list_t_authed_ptrE11attachListsEPKPS1_j
   fun:_ZL24realizeClassWithoutSwiftP10objc_classS0_
}
{
   <insert_a_suppression_name_here>
   Memcheck:Leak
   match-leak-kinds: reachable
   fun:calloc
   fun:_ZL13getClass_implPKc
   fun:_ZN11objc_object27sidetable_clearDeallocatingEv
   fun:_ZL19_finishInitializingP10objc_classS0_
   fun:lookUpImpOrForward
   fun:-[NSProcessInfo arguments]
   fun:-[NSUserDefaults(NSUserDefaults) init]
   fun:+[NSUserDefaults(NSUserDefaults) standardUserDefaults]
   fun:+[NSApplication initialize]
   fun:_objc_addWillInitializeClassFunc
   fun:_ZN13list_array_ttI8method_t13method_list_t24method_list_t_authed_ptrE11attachListsEPKPS1_j
   fun:_ZL24realizeClassWithoutSwiftP10objc_classS0_
}
{
   <insert_a_suppression_name_here>
   Memcheck:Leak
   match-leak-kinds: reachable
   fun:calloc
   fun:_ZL13getClass_implPKc
   fun:_ZN11objc_object27sidetable_clearDeallocatingEv
   fun:_ZL19_finishInitializingP10objc_classS0_
   fun:lookUpImpOrForward
   fun:-[NSUserDefaults(NSUserDefaults) init]
   fun:+[NSUserDefaults(NSUserDefaults) standardUserDefaults]
   fun:+[NSApplication initialize]
   fun:_objc_addWillInitializeClassFunc
   fun:_ZN13list_array_ttI8method_t13method_list_t24method_list_t_authed_ptrE11attachListsEPKPS1_j
   fun:_ZL24realizeClassWithoutSwiftP10objc_classS0_
   fun:-[NSObject dealloc]
}
{
   <insert_a_suppression_name_here>
   Memcheck:Leak
   match-leak-kinds: reachable
   fun:calloc
   fun:_ZL13getClass_implPKc
   fun:_ZN11objc_object27sidetable_clearDeallocatingEv
   fun:_ZL19_finishInitializingP10objc_classS0_
   fun:lookUpImpOrForward
   fun:-[CFPrefsSource replaceAllValuesWithValues:forKeys:count:from:]
   fun:-[CFPrefsSource replaceAllValuesWithValues:forKeys:count:from:]
   fun:_CFPrefsGetCacheStringForBundleID
   fun:-[NSUserDefaults(NSUserDefaults) init]
   fun:+[NSUserDefaults(NSUserDefaults) standardUserDefaults]
   fun:+[NSApplication initialize]
   fun:_objc_addWillInitializeClassFunc
}
{
   <insert_a_suppression_name_here>
   Memcheck:Leak
   match-leak-kinds: reachable
   fun:calloc
   fun:_ZL13getClass_implPKc
   fun:_ZN11objc_object27sidetable_clearDeallocatingEv
   fun:_ZL19_finishInitializingP10objc_classS0_
   fun:lookUpImpOrForward
   fun:-[CFPrefsSource replaceAllValuesWithValues:forKeys:count:from:]
   fun:-[CFPrefsSource replaceAllValuesWithValues:forKeys:count:from:]
   fun:-[CFPrefsSource replaceAllValuesWithValues:forKeys:count:from:]
   fun:_CFPrefsGetCacheStringForBundleID
   fun:-[NSUserDefaults(NSUserDefaults) init]
   fun:+[NSUserDefaults(NSUserDefaults) standardUserDefaults]
   fun:+[NSApplication initialize]
}
{
   <insert_a_suppression_name_here>
   Memcheck:Leak
   match-leak-kinds: reachable
   fun:calloc
   fun:_ZL13getClass_implPKc
   fun:_ZN11objc_object27sidetable_clearDeallocatingEv
   fun:_ZL19_finishInitializingP10objc_classS0_
   fun:lookUpImpOrForward
   fun:mdict_rehashd
   fun:CFArrayGetValues
   fun:-[CFPrefsSource alreadylocked_copyKeyList]
   fun:-[CFPrefsSource replaceAllValuesWithValues:forKeys:count:from:]
   fun:-[CFPrefsSource replaceAllValuesWithValues:forKeys:count:from:]
   fun:-[CFPrefsSource replaceAllValuesWithValues:forKeys:count:from:]
   fun:-[CFPrefsSource replaceAllValuesWithValues:forKeys:count:from:]
}
{
   <insert_a_suppression_name_here>
   Memcheck:Leak
   match-leak-kinds: reachable
   fun:calloc
   fun:_ZL13getClass_implPKc
   fun:_ZN11objc_object27sidetable_clearDeallocatingEv
   fun:_ZL19_finishInitializingP10objc_classS0_
   fun:lookUpImpOrForward
   fun:-[NSArray getObjects:range:]
   fun:-[CFPrefsSource replaceAllValuesWithValues:forKeys:count:from:]
   fun:-[CFPrefsSource replaceAllValuesWithValues:forKeys:count:from:]
   fun:-[CFPrefsSource replaceAllValuesWithValues:forKeys:count:from:]
   fun:-[CFPrefsSource replaceAllValuesWithValues:forKeys:count:from:]
   fun:_CFPrefsGetCacheStringForBundleID
   fun:-[NSUserDefaults(NSUserDefaults) init]
}
{
   <insert_a_suppression_name_here>
   Memcheck:Leak
   match-leak-kinds: reachable
   fun:calloc
   fun:_ZL13getClass_implPKc
   fun:_ZN11objc_object27sidetable_clearDeallocatingEv
   fun:_ZL19_finishInitializingP10objc_classS0_
   fun:lookUpImpOrForward
   fun:-[CFPrefsSource alreadylocked_setPrecopiedValues:forKeys:count:from:]
   fun:-[CFPrefsSource replaceAllValuesWithValues:forKeys:count:from:]
   fun:-[CFPrefsSource replaceAllValuesWithValues:forKeys:count:from:]
   fun:-[CFPrefsSource replaceAllValuesWithValues:forKeys:count:from:]
   fun:-[CFPrefsSource replaceAllValuesWithValues:forKeys:count:from:]
   fun:_CFPrefsGetCacheStringForBundleID
   fun:-[NSUserDefaults(NSUserDefaults) init]
}
{
   <insert_a_suppression_name_here>
   Memcheck:Leak
   match-leak-kinds: reachable
   fun:calloc
   fun:_ZL13getClass_implPKc
   fun:_ZN11objc_object27sidetable_clearDeallocatingEv
   fun:_ZL19_finishInitializingP10objc_classS0_
   fun:lookUpImpOrForward
   fun:CreateStringFromFileSystemRepresentationByAddingPercentEscapes
   fun:CFStringGetCStringPtr
   fun:_CFURLCreateWithFileSystemPath
   fun:CFURLGetString
   fun:CFURLCopyAbsoluteURL
   fun:CFStringFindWithOptionsAndLocale
   fun:-[CFPrefsSource alreadylocked_copyKeyList]
}
{
   <insert_a_suppression_name_here>
   Memcheck:Leak
   match-leak-kinds: reachable
   fun:calloc
   fun:_ZL12read_addressPmPK14dwarf_eh_basesh
   fun:__108-[_CFXPreferences(SearchListAdditions) withSearchListForIdentifier:container:cloudConfigurationURL:perform:]_block_invoke.249
   fun:__CFStringAppendFormatCore
   fun:__CFStringAppendFormatCore
   fun:-[CFPrefsSearchListSource addManagedSourceForIdentifier:user:]
   fun:__108-[_CFXPreferences(SearchListAdditions) withSearchListForIdentifier:container:cloudConfigurationURL:perform:]_block_invoke
   fun:__108-[_CFXPreferences(SearchListAdditions) withSearchListForIdentifier:container:cloudConfigurationURL:perform:]_block_invoke
   fun:-[NSUserDefaults(NSUserDefaults) init]
   fun:+[NSUserDefaults(NSUserDefaults) standardUserDefaults]
   fun:+[NSApplication initialize]
   fun:_objc_addWillInitializeClassFunc
}
{
   <insert_a_suppression_name_here>
   Memcheck:Leak
   match-leak-kinds: reachable
   fun:calloc
   fun:_ZL12read_addressPmPK14dwarf_eh_basesh
   fun:-[CFPrefsSearchListSource copyCloudConfigurationWithURL:outConfigFileSource:outStoreName:]
   fun:-[CFPrefsSearchListSource copyCloudConfigurationWithURL:outConfigFileSource:outStoreName:]
   fun:__CFStringAppendFormatCore
   fun:__CFStringAppendFormatCore
   fun:__108-[_CFXPreferences(SearchListAdditions) withSearchListForIdentifier:container:cloudConfigurationURL:perform:]_block_invoke.249
   fun:__CFStringAppendFormatCore
   fun:__CFStringAppendFormatCore
   fun:-[CFPrefsSearchListSource addManagedSourceForIdentifier:user:]
   fun:__108-[_CFXPreferences(SearchListAdditions) withSearchListForIdentifier:container:cloudConfigurationURL:perform:]_block_invoke
   fun:__108-[_CFXPreferences(SearchListAdditions) withSearchListForIdentifier:container:cloudConfigurationURL:perform:]_block_invoke
}
{
   <insert_a_suppression_name_here>
   Memcheck:Leak
   match-leak-kinds: reachable
   fun:calloc
   fun:_ZL13getClass_implPKc
   fun:_ZN11objc_object27sidetable_clearDeallocatingEv
   fun:_ZL19_finishInitializingP10objc_classS0_
   fun:lookUpImpOrForward
   fun:-[CFPrefsSearchListSource copyCloudConfigurationWithURL:outConfigFileSource:outStoreName:]
   fun:-[CFPrefsSearchListSource copyCloudConfigurationWithURL:outConfigFileSource:outStoreName:]
   fun:-[CFPrefsSearchListSource copyCloudConfigurationWithURL:outConfigFileSource:outStoreName:]
   fun:-[CFPrefsSearchListSource copyCloudConfigurationWithURL:outConfigFileSource:outStoreName:]
   fun:__CFStringAppendFormatCore
   fun:__CFStringAppendFormatCore
   fun:__108-[_CFXPreferences(SearchListAdditions) withSearchListForIdentifier:container:cloudConfigurationURL:perform:]_block_invoke.249
}
{
   <insert_a_suppression_name_here>
   Memcheck:Leak
   match-leak-kinds: reachable
   fun:calloc
   fun:_ZL13getClass_implPKc
   fun:_ZN11objc_object27sidetable_clearDeallocatingEv
   fun:_ZL19_finishInitializingP10objc_classS0_
   fun:lookUpImpOrForward
   fun:__CFStringAppendFormatCore
   fun:__CFStringAppendFormatCore
   fun:__108-[_CFXPreferences(SearchListAdditions) withSearchListForIdentifier:container:cloudConfigurationURL:perform:]_block_invoke.249
   fun:__CFStringAppendFormatCore
   fun:__CFStringAppendFormatCore
   fun:-[CFPrefsSearchListSource addManagedSourceForIdentifier:user:]
   fun:__108-[_CFXPreferences(SearchListAdditions) withSearchListForIdentifier:container:cloudConfigurationURL:perform:]_block_invoke
}
{
   <insert_a_suppression_name_here>
   Memcheck:Leak
   match-leak-kinds: reachable
   fun:calloc
   fun:_ZL12read_addressPmPK14dwarf_eh_basesh
   fun:-[CFPrefsSearchListSource copyCloudConfigurationWithURL:outConfigFileSource:outStoreName:]
   fun:-[CFPrefsSearchListSource copyCloudConfigurationWithURL:outConfigFileSource:outStoreName:]
   fun:__CFStringAppendFormatCore
   fun:__CFStringAppendFormatCore
   fun:__108-[_CFXPreferences(SearchListAdditions) withSearchListForIdentifier:container:cloudConfigurationURL:perform:]_block_invoke.249
   fun:__CFStringAppendFormatCore
   fun:__CFStringAppendFormatCore
   fun:-[CFPrefsSearchListSource addManagedSourceForIdentifier:user:]
   fun:__108-[_CFXPreferences(SearchListAdditions) withSearchListForIdentifier:container:cloudConfigurationURL:perform:]_block_invoke
   fun:__108-[_CFXPreferences(SearchListAdditions) withSearchListForIdentifier:container:cloudConfigurationURL:perform:]_block_invoke
}
{
   <insert_a_suppression_name_here>
   Memcheck:Leak
   match-leak-kinds: reachable
   fun:calloc
   fun:objc_msgSend_stret
   fun:_os_object_alloc_realized
   fun:dispatch_source_create
   fun:_notify_fork_child
   fun:notify_monitor_file
   fun:notify_register_dispatch
   fun:__96-[_CFXPreferences(SourceAdditions) withSourceForIdentifier:user:byHost:container:cloud:perform:]_block_invoke.213
   fun:_dispatch_client_callout
   fun:_dispatch_once_callout
   fun:_CFPrefsExtractQuadrupleFromPathIfPossible
   fun:_CFPrefsExtractQuadrupleFromPathIfPossible
}
{
   <insert_a_suppression_name_here>
   Memcheck:Leak
   match-leak-kinds: reachable
   fun:calloc
   fun:objc_msgSend_stret
   fun:_os_object_alloc_realized
   fun:dispatch_source_create
   fun:_dispatch_kq_poll
   fun:_dispatch_kq_drain
   fun:_dispatch_kq_unote_update
   fun:_dispatch_source_install
   fun:_dispatch_source_activate
   fun:_dispatch_lane_resume_activate
   fun:_notify_fork_child
   fun:notify_monitor_file
}
{
   <insert_a_suppression_name_here>
   Memcheck:Leak
   match-leak-kinds: reachable
   fun:calloc
   fun:objc_msgSend_stret
   fun:_os_object_alloc_realized
   fun:dispatch_source_create
   fun:_notify_fork_child
   fun:notify_monitor_file
   fun:notify_register_dispatch
   fun:__96-[_CFXPreferences(SourceAdditions) withSourceForIdentifier:user:byHost:container:cloud:perform:]_block_invoke.213
   fun:_dispatch_client_callout
   fun:_dispatch_once_callout
   fun:_CFPrefsExtractQuadrupleFromPathIfPossible
   fun:_CFPrefsExtractQuadrupleFromPathIfPossible
}
{
   <insert_a_suppression_name_here>
   Memcheck:Leak
   match-leak-kinds: reachable
   fun:calloc
   fun:_ZL12read_addressPmPK14dwarf_eh_basesh
   fun:_CFGetPathProperties
   fun:-[CFPrefsSearchListSource copyCloudConfigurationWithURL:outConfigFileSource:outStoreName:]
   fun:_CFPrefsExtractQuadrupleFromPathIfPossible
   fun:_CFPrefsExtractQuadrupleFromPathIfPossible
   fun:__destroy_helper_block_e8_32o40r48r
   fun:__CFStringAppendFormatCore
   fun:__CFStringAppendFormatCore
   fun:-[CFPrefsSearchListSource addManagedSourceForIdentifier:user:]
   fun:__108-[_CFXPreferences(SearchListAdditions) withSearchListForIdentifier:container:cloudConfigurationURL:perform:]_block_invoke
   fun:__108-[_CFXPreferences(SearchListAdditions) withSearchListForIdentifier:container:cloudConfigurationURL:perform:]_block_invoke
}
{
   <insert_a_suppression_name_here>
   Memcheck:Leak
   match-leak-kinds: reachable
   fun:calloc
   fun:_ZL13getClass_implPKc
   fun:_ZN11objc_object27sidetable_clearDeallocatingEv
   fun:_ZL19_finishInitializingP10objc_classS0_
   fun:lookUpImpOrForward
   fun:-[CFPrefsSearchListSource copyCloudConfigurationWithURL:outConfigFileSource:outStoreName:]
   fun:_CFGetPathProperties
   fun:-[CFPrefsSearchListSource copyCloudConfigurationWithURL:outConfigFileSource:outStoreName:]
   fun:_CFPrefsExtractQuadrupleFromPathIfPossible
   fun:_CFPrefsExtractQuadrupleFromPathIfPossible
   fun:__destroy_helper_block_e8_32o40r48r
   fun:__CFStringAppendFormatCore
}
{
   <insert_a_suppression_name_here>
   Memcheck:Leak
   match-leak-kinds: reachable
   fun:calloc
   fun:_ZL12read_addressPmPK14dwarf_eh_basesh
   fun:_CFGetPathProperties
   fun:-[CFPrefsSearchListSource copyCloudConfigurationWithURL:outConfigFileSource:outStoreName:]
   fun:_CFPrefsExtractQuadrupleFromPathIfPossible
   fun:_CFPrefsExtractQuadrupleFromPathIfPossible
   fun:__destroy_helper_block_e8_32o40r48r
   fun:__CFStringAppendFormatCore
   fun:__CFStringAppendFormatCore
   fun:-[CFPrefsSearchListSource addManagedSourceForIdentifier:user:]
   fun:__108-[_CFXPreferences(SearchListAdditions) withSearchListForIdentifier:container:cloudConfigurationURL:perform:]_block_invoke
   fun:__108-[_CFXPreferences(SearchListAdditions) withSearchListForIdentifier:container:cloudConfigurationURL:perform:]_block_invoke
}
{
   <insert_a_suppression_name_here>
   Memcheck:Leak
   match-leak-kinds: reachable
   fun:calloc
   fun:_ZL12read_addressPmPK14dwarf_eh_basesh
   fun:-[CFPrefsSearchListSource alreadylocked_getDictionary:]
   fun:-[CFPrefsSearchListSource alreadylocked_getDictionary:]
   fun:-[CFPrefsSearchListSource alreadylocked_copyValueForKey:]
   fun:-[_CFXPreferences(SearchListAdditions) assertEquivalence:ofIdentifiers:containers:cloudConfigurationURLs:]
   fun:__CFStringAppendFormatCore
   fun:__CFStringAppendFormatCore
   fun:-[CFPrefsSearchListSource addManagedSourceForIdentifier:user:]
   fun:__108-[_CFXPreferences(SearchListAdditions) withSearchListForIdentifier:container:cloudConfigurationURL:perform:]_block_invoke
   fun:__108-[_CFXPreferences(SearchListAdditions) withSearchListForIdentifier:container:cloudConfigurationURL:perform:]_block_invoke
   fun:-[NSUserDefaults(NSUserDefaults) init]
}
{
   <insert_a_suppression_name_here>
   Memcheck:Leak
   match-leak-kinds: reachable
   fun:calloc
   fun:_ZL13getClass_implPKc
   fun:_ZN11objc_object27sidetable_clearDeallocatingEv
   fun:_ZL19_finishInitializingP10objc_classS0_
   fun:lookUpImpOrForward
   fun:-[NSSet initWithObjects:]
   fun:-[_CFXPreferences(SourceAdditions) withSourceForIdentifier:user:byHost:container:cloud:perform:]
   fun:-[_CFXPreferences(SourceAdditions) withSourceForIdentifier:user:byHost:container:cloud:perform:]
   fun:-[CFPrefsSearchListSource alreadylocked_getDictionary:]
   fun:-[CFPrefsSearchListSource alreadylocked_copyValueForKey:]
   fun:-[_CFXPreferences(SearchListAdditions) assertEquivalence:ofIdentifiers:containers:cloudConfigurationURLs:]
   fun:__CFStringAppendFormatCore
}
{
   <insert_a_suppression_name_here>
   Memcheck:Leak
   match-leak-kinds: reachable
   fun:calloc
   fun:_ZL12read_addressPmPK14dwarf_eh_basesh
   fun:-[CFPrefsSearchListSource copyCloudConfigurationWithURL:outConfigFileSource:outStoreName:]
   fun:-[CFPrefsSearchListSource copyCloudConfigurationWithURL:outConfigFileSource:outStoreName:]
   fun:__CFStringAppendFormatCore
   fun:__CFStringAppendFormatCore
   fun:-[_CFXPreferences(SearchListAdditions) assertEquivalence:ofIdentifiers:containers:cloudConfigurationURLs:]
   fun:__CFStringAppendFormatCore
   fun:__CFStringAppendFormatCore
   fun:-[CFPrefsSearchListSource addManagedSourceForIdentifier:user:]
   fun:__108-[_CFXPreferences(SearchListAdditions) withSearchListForIdentifier:container:cloudConfigurationURL:perform:]_block_invoke
   fun:__108-[_CFXPreferences(SearchListAdditions) withSearchListForIdentifier:container:cloudConfigurationURL:perform:]_block_invoke
}
{
   <insert_a_suppression_name_here>
   Memcheck:Leak
   match-leak-kinds: reachable
   fun:calloc
   fun:_ZL12read_addressPmPK14dwarf_eh_basesh
   fun:_CFGetPathProperties
   fun:-[CFPrefsSearchListSource copyCloudConfigurationWithURL:outConfigFileSource:outStoreName:]
   fun:_CFPrefsExtractQuadrupleFromPathIfPossible
   fun:_CFPrefsExtractQuadrupleFromPathIfPossible
   fun:-[_CFXPreferences(SearchListAdditions) assertEquivalence:ofIdentifiers:containers:cloudConfigurationURLs:]
   fun:__CFStringAppendFormatCore
   fun:__CFStringAppendFormatCore
   fun:-[CFPrefsSearchListSource addManagedSourceForIdentifier:user:]
   fun:__108-[_CFXPreferences(SearchListAdditions) withSearchListForIdentifier:container:cloudConfigurationURL:perform:]_block_invoke
   fun:__108-[_CFXPreferences(SearchListAdditions) withSearchListForIdentifier:container:cloudConfigurationURL:perform:]_block_invoke
}
{
   <insert_a_suppression_name_here>
   Memcheck:Leak
   match-leak-kinds: reachable
   fun:calloc
   fun:_ZL12read_addressPmPK14dwarf_eh_basesh
   fun:_CFGetPathProperties
   fun:-[CFPrefsSearchListSource copyCloudConfigurationWithURL:outConfigFileSource:outStoreName:]
   fun:_CFPrefsExtractQuadrupleFromPathIfPossible
   fun:_CFPrefsExtractQuadrupleFromPathIfPossible
   fun:-[_CFXPreferences(SearchListAdditions) assertEquivalence:ofIdentifiers:containers:cloudConfigurationURLs:]
   fun:__CFStringAppendFormatCore
   fun:__CFStringAppendFormatCore
   fun:-[CFPrefsSearchListSource addManagedSourceForIdentifier:user:]
   fun:__108-[_CFXPreferences(SearchListAdditions) withSearchListForIdentifier:container:cloudConfigurationURL:perform:]_block_invoke
   fun:__108-[_CFXPreferences(SearchListAdditions) withSearchListForIdentifier:container:cloudConfigurationURL:perform:]_block_invoke
}
{
   <insert_a_suppression_name_here>
   Memcheck:Leak
   match-leak-kinds: reachable
   fun:calloc
   fun:_ZL12read_addressPmPK14dwarf_eh_basesh
   fun:_CFGetPathProperties
   fun:-[CFPrefsSearchListSource copyCloudConfigurationWithURL:outConfigFileSource:outStoreName:]
   fun:_CFPrefsExtractQuadrupleFromPathIfPossible
   fun:_CFPrefsExtractQuadrupleFromPathIfPossible
   fun:-[_CFXPreferences(SearchListAdditions) assertEquivalence:ofIdentifiers:containers:cloudConfigurationURLs:]
   fun:__CFStringAppendFormatCore
   fun:__CFStringAppendFormatCore
   fun:-[CFPrefsSearchListSource addManagedSourceForIdentifier:user:]
   fun:__108-[_CFXPreferences(SearchListAdditions) withSearchListForIdentifier:container:cloudConfigurationURL:perform:]_block_invoke
   fun:__108-[_CFXPreferences(SearchListAdditions) withSearchListForIdentifier:container:cloudConfigurationURL:perform:]_block_invoke
}
{
   <insert_a_suppression_name_here>
   Memcheck:Leak
   match-leak-kinds: reachable
   fun:calloc
   fun:_ZL12read_addressPmPK14dwarf_eh_basesh
   fun:-[CFPrefsSearchListSource alreadylocked_getDictionary:]
   fun:-[CFPrefsSearchListSource alreadylocked_getDictionary:]
   fun:-[CFPrefsSearchListSource alreadylocked_copyValueForKey:]
   fun:-[_CFXPreferences(SearchListAdditions) assertEquivalence:ofIdentifiers:containers:cloudConfigurationURLs:]
   fun:__CFStringAppendFormatCore
   fun:__CFStringAppendFormatCore
   fun:-[CFPrefsSearchListSource addManagedSourceForIdentifier:user:]
   fun:__108-[_CFXPreferences(SearchListAdditions) withSearchListForIdentifier:container:cloudConfigurationURL:perform:]_block_invoke
   fun:__108-[_CFXPreferences(SearchListAdditions) withSearchListForIdentifier:container:cloudConfigurationURL:perform:]_block_invoke
   fun:-[NSUserDefaults(NSUserDefaults) init]
}
{
   <insert_a_suppression_name_here>
   Memcheck:Leak
   match-leak-kinds: reachable
   fun:calloc
   fun:_ZL12read_addressPmPK14dwarf_eh_basesh
   fun:_CFGetPathProperties
   fun:-[CFPrefsSearchListSource copyCloudConfigurationWithURL:outConfigFileSource:outStoreName:]
   fun:_CFPrefsExtractQuadrupleFromPathIfPossible
   fun:_CFPrefsExtractQuadrupleFromPathIfPossible
   fun:-[_CFXPreferences(SearchListAdditions) assertEquivalence:ofIdentifiers:containers:cloudConfigurationURLs:]
   fun:__CFStringAppendFormatCore
   fun:__CFStringAppendFormatCore
   fun:-[CFPrefsSearchListSource addManagedSourceForIdentifier:user:]
   fun:__108-[_CFXPreferences(SearchListAdditions) withSearchListForIdentifier:container:cloudConfigurationURL:perform:]_block_invoke
   fun:__108-[_CFXPreferences(SearchListAdditions) withSearchListForIdentifier:container:cloudConfigurationURL:perform:]_block_invoke

{
   <insert_a_suppression_name_here>
   Memcheck:Leak
   match-leak-kinds: reachable
   fun:realloc
   fun:reallocf
   fun:_ZL27protocol_getProperty_nolockP10protocol_tPKcbb
   fun:property_copyAttributeValue
   fun:_ZL10free_classP10objc_class
   fun:objc_msgLookup
   fun:_ZN4dyldL12notifySingleE17dyld_image_statesPK11ImageLoaderPNS1_21InitializerTimingListE
   fun:_ZN11ImageLoader23recursiveInitializationERKNS_11LinkContextEjPKcRNS_21InitializerTimingListERNS_15UninitedUpwardsE
   fun:_ZN11ImageLoader19processInitializersERKNS_11LinkContextEjRNS_21InitializerTimingListERNS_15UninitedUpwardsE
   fun:_ZN11ImageLoader19processInitializersERKNS_11LinkContextEjRNS_21InitializerTimingListERNS_15UninitedUpwardsE
   fun:_ZN11ImageLoader15runInitializersERKNS_11LinkContextERNS_21InitializerTimingListE
   fun:_ZN4dyld24initializeMainExecutableEv
}
{
   <insert_a_suppression_name_here>
   Memcheck:Leak
   match-leak-kinds: reachable
   fun:calloc
   fun:_ZL13getClass_implPKc
   fun:_ZN11objc_object27sidetable_clearDeallocatingEv
   fun:_ZL19_finishInitializingP10objc_classS0_
   fun:lookUpImpOrForward
   fun:-[NSThread init]
   fun:____NSThreads_block_invoke
   fun:_dispatch_client_callout
   fun:_dispatch_once_callout
   fun:_NSThreadGet0
   fun:_NSInitializePlatform
   fun:objc_msgLookup_fpret
}
{
   <insert_a_suppression_name_here>
   Memcheck:Leak
   match-leak-kinds: reachable
   fun:calloc
   fun:_ZL13getClass_implPKc
   fun:_ZN11objc_object27sidetable_clearDeallocatingEv
   fun:_ZL19_finishInitializingP10objc_classS0_
   fun:lookUpImpOrForward
   fun:-[NSThread init]
   fun:____NSThreads_block_invoke
   fun:_dispatch_client_callout
   fun:_dispatch_once_callout
   fun:_NSThreadGet0
   fun:_NSInitializePlatform
   fun:objc_msgLookup_fpret
}
{
   <insert_a_suppression_name_here>
   Memcheck:Leak
   match-leak-kinds: reachable
   fun:malloc
   fun:protocol_getProperty
   fun:property_copyAttributeValue
   fun:_ZL10free_classP10objc_class
   fun:objc_msgLookup
   fun:_ZN4dyldL12notifySingleE17dyld_image_statesPK11ImageLoaderPNS1_21InitializerTimingListE
   fun:_ZN11ImageLoader23recursiveInitializationERKNS_11LinkContextEjPKcRNS_21InitializerTimingListERNS_15UninitedUpwardsE
   fun:_ZN11ImageLoader19processInitializersERKNS_11LinkContextEjRNS_21InitializerTimingListERNS_15UninitedUpwardsE
   fun:_ZN11ImageLoader19processInitializersERKNS_11LinkContextEjRNS_21InitializerTimingListERNS_15UninitedUpwardsE
   fun:_ZN11ImageLoader15runInitializersERKNS_11LinkContextERNS_21InitializerTimingListE
   fun:_ZN4dyld24initializeMainExecutableEv
   fun:_ZN4dyld5_mainEPK12macho_headermiPPKcS5_S5_Pm
}
{
   <insert_a_suppression_name_here>
   Memcheck:Leak
   match-leak-kinds: possible
   fun:calloc
   fun:_dispatch_calloc
   fun:_dispatch_unote_create
   fun:_dispatch_mach_send_create
   fun:_dispatch_mach_create
   fun:_voucher_activity_debug_channel_init
   fun:_dispatch_kq_poll
   fun:_dispatch_kq_drain
   fun:_dispatch_kq_unote_update
   fun:_dispatch_source_install
   fun:_dispatch_source_activate
   fun:_dispatch_lane_resume_activate
}
{
   <insert_a_suppression_name_here>
   Memcheck:Leak
   match-leak-kinds: reachable
   fun:malloc_zone_malloc
   fun:resolveAbsoluteURLStringBuffer
   fun:_dispatch_client_callout
   fun:_dispatch_once_callout
   fun:resolveAbsoluteURLStringBuffer
   fun:resolveAbsoluteURLStringBuffer
   fun:CFUniCharGetUnicodePropertyDataForPlane
   fun:CFUniCharDecomposeWithErrorLocation
   fun:_CFBundleCopyBundleURLForExecutableURL
   fun:CreateStringFromFileSystemRepresentationByAddingPercentEscapes
   fun:CreateStringFromFileSystemRepresentationByAddingPercentEscapes
   fun:_CFURLCreateWithFileSystemPath
}
{
   <insert_a_suppression_name_here>
   Memcheck:Leak
   match-leak-kinds: reachable
   fun:calloc
   fun:objc_msgSend_stret
   fun:_os_object_alloc_realized
   fun:_dispatch_mach_create
   fun:_voucher_activity_debug_channel_init
   fun:_dispatch_kq_poll
   fun:_dispatch_kq_drain
   fun:_dispatch_kq_unote_update
   fun:_dispatch_source_install
   fun:_dispatch_source_activate
   fun:_dispatch_lane_resume_activate
   fun:_notify_fork_child
}
{
   <insert_a_suppression_name_here>
   Memcheck:Leak
   match-leak-kinds: reachable
   fun:calloc
   fun:objc_msgSend_stret
   fun:_os_object_alloc_realized
   fun:_xpc_string_create
   fun:xpc_dictionary_set_string
   fun:-[CFPrefsSearchListSource synchronouslySendDaemonMessage:andAgentMessage:andDirectMessage:replyHandler:]
   fun:-[_CFXPreferences currentUserHasInvalidHomeDirectory]
   fun:_CFPrefsEncodeValueIntoMessage
   fun:-[CFPrefsPlistSource createSynchronizeMessage]
   fun:-[CFPrefsPlistSource volatilizeIfInvalidHomeDir]
   fun:__isOnDirectModeBlackList_block_invoke
   fun:-[CFPrefsPlistSource createRequestNewContentMessageForDaemon:]
}
{
   <insert_a_suppression_name_here>
   Memcheck:Leak
   match-leak-kinds: reachable
   fun:calloc
   fun:objc_msgSend_stret
   fun:_os_object_alloc_realized
   fun:_xpc_string_create
   fun:xpc_dictionary_set_string
   fun:-[CFPrefsSearchListSource synchronouslySendDaemonMessage:andAgentMessage:andDirectMessage:replyHandler:]
   fun:-[_CFXPreferences currentUserHasInvalidHomeDirectory]
   fun:_CFPrefsEncodeValueIntoMessage
   fun:-[CFPrefsPlistSource createSynchronizeMessage]
   fun:-[CFPrefsPlistSource volatilizeIfInvalidHomeDir]
   fun:__isOnDirectModeBlackList_block_invoke
   fun:-[CFPrefsPlistSource createRequestNewContentMessageForDaemon:]
}
{
   <insert_a_suppression_name_here>
   Memcheck:Leak
   match-leak-kinds: possible
   fun:malloc
   fun:_ZL24realizeClassWithoutSwiftP10objc_classS0_
   fun:_ZL32adjustCustomFlagsForMethodChangeP10objc_classP8method_t
   fun:property_copyAttributeValue
   fun:_ZL10free_classP10objc_class
   fun:objc_msgLookup
   fun:_ZN4dyldL12notifySingleE17dyld_image_statesPK11ImageLoaderPNS1_21InitializerTimingListE
   fun:_ZN11ImageLoader23recursiveInitializationERKNS_11LinkContextEjPKcRNS_21InitializerTimingListERNS_15UninitedUpwardsE
   fun:_ZN11ImageLoader19processInitializersERKNS_11LinkContextEjRNS_21InitializerTimingListERNS_15UninitedUpwardsE
   fun:_ZN11ImageLoader19processInitializersERKNS_11LinkContextEjRNS_21InitializerTimingListERNS_15UninitedUpwardsE
   fun:_ZN11ImageLoader15runInitializersERKNS_11LinkContextERNS_21InitializerTimingListE
   fun:_ZN4dyld24initializeMainExecutableEv
}
{
   <insert_a_suppression_name_here>
   Memcheck:Leak
   match-leak-kinds: reachable
   fun:malloc
   fun:_xpc_malloc
   fun:_xpc_dictionary_insert
   fun:xpc_dictionary_set_bool
   fun:-[_CFXPreferences currentUserHasInvalidHomeDirectory]
   fun:_CFPrefsEncodeValueIntoMessage
   fun:-[CFPrefsPlistSource createSynchronizeMessage]
   fun:-[CFPrefsPlistSource volatilizeIfInvalidHomeDir]
   fun:__isOnDirectModeBlackList_block_invoke
   fun:-[CFPrefsPlistSource createRequestNewContentMessageForDaemon:]
   fun:generationCountFromListOfSources
   fun:-[CFPrefsSearchListSource alreadylocked_generationCountFromListOfSources:count:]
}
{
   <insert_a_suppression_name_here>
   Memcheck:Leak
   match-leak-kinds: reachable
   fun:malloc
   fun:strdup
   fun:xpc_string_create
   fun:xpc_dictionary_set_string
   fun:-[CFPrefsSearchListSource synchronouslySendDaemonMessage:andAgentMessage:andDirectMessage:replyHandler:]
   fun:_CFUnsandboxedHomeDirectoryForCurrentUser
   fun:_CFPrefsEncodeValueIntoMessage
   fun:-[CFPrefsPlistSource createSynchronizeMessage]
   fun:-[CFPrefsPlistSource volatilizeIfInvalidHomeDir]
   fun:__isOnDirectModeBlackList_block_invoke
   fun:-[CFPrefsPlistSource createRequestNewContentMessageForDaemon:]
   fun:generationCountFromListOfSources
}
{
   <insert_a_suppression_name_here>
   Memcheck:Leak
   match-leak-kinds: reachable
   fun:calloc
   fun:_ZL12read_addressPmPK14dwarf_eh_basesh
   fun:weak_register_no_lock
   fun:-[NSThread init]
   fun:____NSThreads_block_invoke
   fun:_dispatch_client_callout
   fun:_dispatch_once_callout
   fun:_NSThreadGet0
   fun:_NSInitializePlatform
   fun:objc_msgLookup_fpret
   fun:_ZN4dyldL12notifySingleE17dyld_image_statesPK11ImageLoaderPNS1_21InitializerTimingListE
   fun:_ZN11ImageLoader23recursiveInitializationERKNS_11LinkContextEjPKcRNS_21InitializerTimingListERNS_15UninitedUpwardsE
}
{
   <insert_a_suppression_name_here>
   Memcheck:Leak
   match-leak-kinds: reachable
   fun:calloc
   fun:objc_msgSend_stret
   fun:_os_object_alloc_realized
   fun:_xpc_pipe_pack_message
   fun:_xpc_pipe_routine
   fun:xpc_pipe_routine_with_flags
   fun:_xpc_interface_routine
   fun:vproc_swap_complex
   fun:vproc_swap_string
   fun:-[CFPrefsPlistSource handleReply:toRequestNewDataMessage:onConnection:retryCount:error:]
   fun:_dispatch_client_callout
   fun:_dispatch_once_callout
}
{
   <insert_a_suppression_name_here>
   Memcheck:Leak
   match-leak-kinds: reachable
   fun:malloc
   fun:LI_ils_create
   fun:_extract_user_dict
   fun:_extract_user
   fun:_ds_item
   fun:ds_user_byuid
   fun:si_user_byuid
   fun:search_item_bynumber
   fun:search_user_byuid
   fun:si_user_byuid
   fun:getpwuid_r
   fun:_CFRuntimeBridgeClasses
}
{
   <insert_a_suppression_name_here>
   Memcheck:Leak
   match-leak-kinds: reachable
   fun:malloc
   fun:_xpc_malloc
   fun:_xpc_dictionary_insert
   fun:xpc_dictionary_set_string
   fun:-[CFPrefsSearchListSource synchronouslySendDaemonMessage:andAgentMessage:andDirectMessage:replyHandler:]
   fun:-[_CFXPreferences currentUserHasInvalidHomeDirectory]
   fun:_CFPrefsEncodeValueIntoMessage
   fun:-[CFPrefsPlistSource createSynchronizeMessage]
   fun:-[CFPrefsPlistSource volatilizeIfInvalidHomeDir]
   fun:__isOnDirectModeBlackList_block_invoke
   fun:-[CFPrefsPlistSource createRequestNewContentMessageForDaemon:]
   fun:generationCountFromListOfSources
}
{
   <insert_a_suppression_name_here>
   Memcheck:Leak
   match-leak-kinds: reachable
   fun:malloc
   fun:_xpc_malloc
   fun:_xpc_dictionary_insert
   fun:xpc_dictionary_set_bool
   fun:-[_CFXPreferences currentUserHasInvalidHomeDirectory]
   fun:_CFPrefsEncodeValueIntoMessage
   fun:-[CFPrefsPlistSource createSynchronizeMessage]
   fun:-[CFPrefsPlistSource volatilizeIfInvalidHomeDir]
   fun:__isOnDirectModeBlackList_block_invoke
   fun:-[CFPrefsPlistSource createRequestNewContentMessageForDaemon:]
   fun:generationCountFromListOfSources
   fun:-[CFPrefsSearchListSource alreadylocked_generationCountFromListOfSources:count:]
}
{
   <insert_a_suppression_name_here>
   Memcheck:Leak
   match-leak-kinds: reachable
   fun:malloc
   fun:_xpc_malloc
   fun:_xpc_dictionary_insert
   fun:xpc_dictionary_set_int64
   fun:-[_CFXPreferences currentUserHasInvalidHomeDirectory]
   fun:_CFPrefsEncodeValueIntoMessage
   fun:-[CFPrefsPlistSource createSynchronizeMessage]
   fun:-[CFPrefsPlistSource volatilizeIfInvalidHomeDir]
   fun:__isOnDirectModeBlackList_block_invoke
   fun:-[CFPrefsPlistSource createRequestNewContentMessageForDaemon:]
   fun:generationCountFromListOfSources
   fun:-[CFPrefsSearchListSource alreadylocked_generationCountFromListOfSources:count:]
}
{
   <insert_a_suppression_name_here>
   Memcheck:Leak
   match-leak-kinds: reachable
   fun:realloc
   fun:reallocf
   fun:_ZL27protocol_getProperty_nolockP10protocol_tPKcbb
   fun:_method_getImplementationAndName
   fun:_ZL10free_classP10objc_class
   fun:objc_msgLookup
   fun:_ZN4dyldL12notifySingleE17dyld_image_statesPK11ImageLoaderPNS1_21InitializerTimingListE
   fun:_ZN11ImageLoader23recursiveInitializationERKNS_11LinkContextEjPKcRNS_21InitializerTimingListERNS_15UninitedUpwardsE
   fun:_ZN11ImageLoader19processInitializersERKNS_11LinkContextEjRNS_21InitializerTimingListERNS_15UninitedUpwardsE
   fun:_ZN11ImageLoader19processInitializersERKNS_11LinkContextEjRNS_21InitializerTimingListERNS_15UninitedUpwardsE
   fun:_ZN11ImageLoader15runInitializersERKNS_11LinkContextERNS_21InitializerTimingListE
   fun:_ZN4dyld24initializeMainExecutableEv
}
{
   <insert_a_suppression_name_here>
   Memcheck:Leak
   match-leak-kinds: reachable
   fun:calloc
   fun:-[__NSArrayM dealloc]
   fun:-[__NSArrayM objectAtIndex:]
   fun:_CFGetPathProperties
   fun:-[CFPrefsSearchListSource copyCloudConfigurationWithURL:outConfigFileSource:outStoreName:]
   fun:_CFPrefsExtractQuadrupleFromPathIfPossible
   fun:_CFPrefsExtractQuadrupleFromPathIfPossible
   fun:-[_CFXPreferences(SearchListAdditions) assertEquivalence:ofIdentifiers:containers:cloudConfigurationURLs:]
   fun:__CFStringAppendFormatCore
   fun:__CFStringAppendFormatCore
   fun:-[CFPrefsSearchListSource addManagedSourceForIdentifier:user:]
   fun:__108-[_CFXPreferences(SearchListAdditions) withSearchListForIdentifier:container:cloudConfigurationURL:perform:]_block_invoke
}
{
   <insert_a_suppression_name_here>
   Memcheck:Leak
   match-leak-kinds: reachable
   fun:malloc
   fun:_xpc_malloc
   fun:_xpc_dictionary_insert
   fun:xpc_dictionary_set_string
   fun:-[CFPrefsSearchListSource synchronouslySendDaemonMessage:andAgentMessage:andDirectMessage:replyHandler:]
   fun:-[_CFXPreferences currentUserHasInvalidHomeDirectory]
   fun:_CFPrefsEncodeValueIntoMessage
   fun:-[CFPrefsPlistSource createSynchronizeMessage]
   fun:-[CFPrefsPlistSource volatilizeIfInvalidHomeDir]
   fun:__isOnDirectModeBlackList_block_invoke
   fun:-[CFPrefsPlistSource createRequestNewContentMessageForDaemon:]
   fun:generationCountFromListOfSources
}
{
   <insert_a_suppression_name_here>
   Memcheck:Leak
   match-leak-kinds: reachable
   fun:malloc
   fun:_xpc_malloc
   fun:_xpc_dictionary_insert
   fun:xpc_dictionary_set_bool
   fun:-[_CFXPreferences currentUserHasInvalidHomeDirectory]
   fun:_CFPrefsEncodeValueIntoMessage
   fun:-[CFPrefsPlistSource createSynchronizeMessage]
   fun:-[CFPrefsPlistSource volatilizeIfInvalidHomeDir]
   fun:__isOnDirectModeBlackList_block_invoke
   fun:-[CFPrefsPlistSource createRequestNewContentMessageForDaemon:]
   fun:generationCountFromListOfSources
   fun:-[CFPrefsSearchListSource alreadylocked_generationCountFromListOfSources:count:]
}
{
   <insert_a_suppression_name_here>
   Memcheck:Leak
   match-leak-kinds: reachable
   fun:malloc
   fun:_xpc_malloc
   fun:_xpc_dictionary_insert
   fun:xpc_dictionary_set_bool
   fun:-[_CFXPreferences currentUserHasInvalidHomeDirectory]
   fun:_CFPrefsEncodeValueIntoMessage
   fun:-[CFPrefsPlistSource createSynchronizeMessage]
   fun:-[CFPrefsPlistSource volatilizeIfInvalidHomeDir]
   fun:__isOnDirectModeBlackList_block_invoke
   fun:-[CFPrefsPlistSource createRequestNewContentMessageForDaemon:]
   fun:generationCountFromListOfSources
   fun:-[CFPrefsSearchListSource alreadylocked_generationCountFromListOfSources:count:]
}
{
   <insert_a_suppression_name_here>
   Memcheck:Leak
   match-leak-kinds: reachable
   fun:calloc
   fun:notify_dump_status
   fun:notify_dump_status
   fun:_notify_fork_child
   fun:_notify_fork_child
   fun:notify_register_check
   fun:__si_module_static_ds_block_invoke
   fun:_dispatch_client_callout
   fun:_dispatch_once_callout
   fun:si_module_static_ds
   fun:si_module_with_name
   fun:si_module_config_modules_for_category
}
{
   <insert_a_suppression_name_here>
   Memcheck:Leak
   match-leak-kinds: reachable
   fun:calloc
   fun:notify_dump_status
   fun:notify_monitor_file
   fun:_notify_fork_child
   fun:notify_register_check
   fun:__si_module_static_ds_block_invoke
   fun:_dispatch_client_callout
   fun:_dispatch_once_callout
   fun:si_module_static_ds
   fun:si_module_with_name
   fun:si_module_config_modules_for_category
   fun:__si_module_static_search_block_invoke
}
{
   <insert_a_suppression_name_here>
   Memcheck:Leak
   match-leak-kinds: reachable
   fun:malloc
   fun:_ZL10free_classP10objc_class
   fun:_ZL12detach_classP10objc_classb
   fun:_ZN4objc20UnattachedCategories11addForClassE21locstamped_category_tP10objc_class
   fun:+[NSObject new]
   fun:CFBasicHashCreate
   fun:_CFStringGetUserDefaultEncoding
   fun:_ZN16ImageLoaderMachO11doImageInitERKN11ImageLoader11LinkContextE
   fun:_ZN16ImageLoaderMachO16doInitializationERKN11ImageLoader11LinkContextE
   fun:_ZN11ImageLoader23recursiveInitializationERKNS_11LinkContextEjPKcRNS_21InitializerTimingListERNS_15UninitedUpwardsE
   fun:_ZN11ImageLoader23recursiveInitializationERKNS_11LinkContextEjPKcRNS_21InitializerTimingListERNS_15UninitedUpwardsE
   fun:_ZN11ImageLoader23recursiveInitializationERKNS_11LinkContextEjPKcRNS_21InitializerTimingListERNS_15UninitedUpwardsE
}
{
   <insert_a_suppression_name_here>
   Memcheck:Leak
   match-leak-kinds: reachable
   fun:calloc
   fun:_ZL13getClass_implPKc
   fun:_ZN11objc_object27sidetable_clearDeallocatingEv
   fun:_ZL19_finishInitializingP10objc_classS0_
   fun:lookUpImpOrForward
   fun:-[NSUserDefaults(NSUserDefaults) init]
   fun:+[NSUserDefaults(NSUserDefaults) standardUserDefaults]
   fun:+[NSApplication initialize]
   fun:_objc_addWillInitializeClassFunc
   fun:_ZN13list_array_ttI8method_t13method_list_t24method_list_t_authed_ptrE11attachListsEPKPS1_j
   fun:_ZL24realizeClassWithoutSwiftP10objc_classS0_
   fun:-[NSObject dealloc]
}
{
   <insert_a_suppression_name_here>
   Memcheck:Leak
   match-leak-kinds: reachable
   fun:calloc
   fun:_ZL13getClass_implPKc
   fun:_ZN11objc_object27sidetable_clearDeallocatingEv
   fun:_ZL19_finishInitializingP10objc_classS0_
   fun:lookUpImpOrForward
   fun:__108-[_CFXPreferences(SearchListAdditions) withSearchListForIdentifier:container:cloudConfigurationURL:perform:]_block_invoke
   fun:__108-[_CFXPreferences(SearchListAdditions) withSearchListForIdentifier:container:cloudConfigurationURL:perform:]_block_invoke
   fun:-[NSUserDefaults(NSUserDefaults) init]
   fun:+[NSUserDefaults(NSUserDefaults) standardUserDefaults]
   fun:+[NSApplication initialize]
   fun:_objc_addWillInitializeClassFunc
   fun:_ZN13list_array_ttI8method_t13method_list_t24method_list_t_authed_ptrE11attachListsEPKPS1_j
}
{
   <insert_a_suppression_name_here>
   Memcheck:Leak
   match-leak-kinds: reachable
   fun:calloc
   fun:_ZL13getClass_implPKc
   fun:_ZN11objc_object27sidetable_clearDeallocatingEv
   fun:_ZL19_finishInitializingP10objc_classS0_
   fun:lookUpImpOrForward
   fun:_CFBundleCopyBundleURLForExecutableURL
   fun:CreateStringFromFileSystemRepresentationByAddingPercentEscapes
   fun:CreateStringFromFileSystemRepresentationByAddingPercentEscapes
   fun:_CFURLCreateWithFileSystemPath
   fun:CFURLGetString
   fun:CFURLCopyAbsoluteURL
   fun:CFStringFindWithOptionsAndLocale
}
{
   <insert_a_suppression_name_here>
   Memcheck:Leak
   match-leak-kinds: reachable
   fun:calloc
   fun:_ZL13getClass_implPKc
   fun:_ZN11objc_object27sidetable_clearDeallocatingEv
   fun:_ZL19_finishInitializingP10objc_classS0_
   fun:lookUpImpOrForward
   fun:_CFBundleInfoPlistProcessInfoDictionary
   fun:CFURLCreateDataAndPropertiesFromResource
   fun:_CFBundleCopyInfoDictionaryInDirectoryWithVersion
   fun:_CFBundleCopyInfoDictionaryInDirectoryWithVersion
   fun:_CFBundleCreate
   fun:CFStringFindWithOptionsAndLocale
   fun:-[CFPrefsSource alreadylocked_copyKeyList]
}
{
   <insert_a_suppression_name_here>
   Memcheck:Leak
   match-leak-kinds: reachable
   fun:calloc
   fun:_ZL13getClass_implPKc
   fun:_ZN11objc_object27sidetable_clearDeallocatingEv
   fun:_ZL19_finishInitializingP10objc_classS0_
   fun:lookUpImpOrForward
   fun:mdict_rehashd
   fun:-[CFPrefsSearchListSource copyCloudConfigurationWithURL:outConfigFileSource:outStoreName:]
   fun:-[CFPrefsSearchListSource copyCloudConfigurationWithURL:outConfigFileSource:outStoreName:]
   fun:__CFStringAppendFormatCore
   fun:__CFStringAppendFormatCore
   fun:__108-[_CFXPreferences(SearchListAdditions) withSearchListForIdentifier:container:cloudConfigurationURL:perform:]_block_invoke.249
   fun:__CFStringAppendFormatCore
}
{
   <insert_a_suppression_name_here>
   Memcheck:Leak
   match-leak-kinds: reachable
   fun:calloc
   fun:_ZL13getClass_implPKc
   fun:_ZN11objc_object27sidetable_clearDeallocatingEv
   fun:_ZL19_finishInitializingP10objc_classS0_
   fun:lookUpImpOrForward
   fun:-[NSSet initWithObjects:]
   fun:-[_CFXPreferences(SourceAdditions) withSourceForIdentifier:user:byHost:container:cloud:perform:]
   fun:-[_CFXPreferences(SourceAdditions) withSourceForIdentifier:user:byHost:container:cloud:perform:]
   fun:-[CFPrefsSource replaceAllValuesWithValues:forKeys:count:from:]
   fun:-[_CFXPreferences(SourceAdditions) withSourceForIdentifier:user:byHost:container:cloud:perform:]
   fun:__108-[_CFXPreferences(SearchListAdditions) withSearchListForIdentifier:container:cloudConfigurationURL:perform:]_block_invoke.249
   fun:__CFStringAppendFormatCore
}
{
   <insert_a_suppression_name_here>
   Memcheck:Leak
   match-leak-kinds: reachable
   fun:calloc
   fun:_ZL13getClass_implPKc
   fun:_ZN11objc_object27sidetable_clearDeallocatingEv
   fun:_ZL19_finishInitializingP10objc_classS0_
   fun:lookUpImpOrForward
   fun:-[_CFXPreferences(SearchListAdditions) assertEquivalence:ofIdentifiers:containers:cloudConfigurationURLs:]
   fun:__CFStringAppendFormatCore
   fun:__CFStringAppendFormatCore
   fun:-[CFPrefsSearchListSource addManagedSourceForIdentifier:user:]
   fun:__108-[_CFXPreferences(SearchListAdditions) withSearchListForIdentifier:container:cloudConfigurationURL:perform:]_block_invoke
   fun:__108-[_CFXPreferences(SearchListAdditions) withSearchListForIdentifier:container:cloudConfigurationURL:perform:]_block_invoke
   fun:-[NSUserDefaults(NSUserDefaults) init]
}
{
   <insert_a_suppression_name_here>
   Memcheck:Leak
   match-leak-kinds: reachable
   fun:calloc
   fun:_xpc_calloc
   fun:xpc_array_create
   fun:-[CFPrefsPlistSource createSynchronizeMessage]
   fun:__isOnDirectModeBlackList_block_invoke
   fun:-[CFPrefsPlistSource createRequestNewContentMessageForDaemon:]
   fun:generationCountFromListOfSources
   fun:-[CFPrefsSearchListSource alreadylocked_generationCountFromListOfSources:count:]
   fun:-[CFPrefsSearchListSource alreadylocked_generationCountFromListOfSources:count:]
   fun:__CFStringAppendFormatCore
   fun:-[CFPrefsSearchListSource addManagedSourceForIdentifier:user:]
   fun:__108-[_CFXPreferences(SearchListAdditions) withSearchListForIdentifier:container:cloudConfigurationURL:perform:]_block_invoke
}
{
   <insert_a_suppression_name_here>
   Memcheck:Leak
   match-leak-kinds: reachable
   fun:calloc
   fun:_xpc_calloc
   fun:xpc_array_create
   fun:-[CFPrefsPlistSource createSynchronizeMessage]
   fun:__isOnDirectModeBlackList_block_invoke
   fun:-[CFPrefsPlistSource createRequestNewContentMessageForDaemon:]
   fun:generationCountFromListOfSources
   fun:-[CFPrefsSearchListSource alreadylocked_generationCountFromListOfSources:count:]
   fun:-[CFPrefsSearchListSource alreadylocked_generationCountFromListOfSources:count:]
   fun:__CFStringAppendFormatCore
   fun:-[CFPrefsSearchListSource addManagedSourceForIdentifier:user:]
   fun:__108-[_CFXPreferences(SearchListAdditions) withSearchListForIdentifier:container:cloudConfigurationURL:perform:]_block_invoke
}
{
   <insert_a_suppression_name_here>
   Memcheck:Leak
   match-leak-kinds: possible
   fun:malloc
   fun:_ZL24realizeClassWithoutSwiftP10objc_classS0_
   fun:_ZL32adjustCustomFlagsForMethodChangeP10objc_classP8method_t
   fun:property_copyAttributeValue
   fun:_ZL10free_classP10objc_class
   fun:objc_msgLookup
   fun:_ZN4dyldL12notifySingleE17dyld_image_statesPK11ImageLoaderPNS1_21InitializerTimingListE
   fun:_ZN11ImageLoader23recursiveInitializationERKNS_11LinkContextEjPKcRNS_21InitializerTimingListERNS_15UninitedUpwardsE
   fun:_ZN11ImageLoader19processInitializersERKNS_11LinkContextEjRNS_21InitializerTimingListERNS_15UninitedUpwardsE
   fun:_ZN11ImageLoader19processInitializersERKNS_11LinkContextEjRNS_21InitializerTimingListERNS_15UninitedUpwardsE
   fun:_ZN11ImageLoader15runInitializersERKNS_11LinkContextERNS_21InitializerTimingListE
   fun:_ZN4dyld24initializeMainExecutableEv
}
{
   <insert_a_suppression_name_here>
   Memcheck:Leak
   match-leak-kinds: reachable
   fun:calloc
   fun:objc_msgSend_stret
   fun:_os_object_alloc_realized
   fun:xpc_dictionary_create
   fun:-[_CFXPreferences currentUserHasInvalidHomeDirectory]
   fun:_CFPrefsEncodeValueIntoMessage
   fun:-[CFPrefsPlistSource createSynchronizeMessage]
   fun:-[CFPrefsPlistSource volatilizeIfInvalidHomeDir]
   fun:__isOnDirectModeBlackList_block_invoke
   fun:-[CFPrefsPlistSource createRequestNewContentMessageForDaemon:]
   fun:generationCountFromListOfSources
   fun:-[CFPrefsSearchListSource alreadylocked_generationCountFromListOfSources:count:]
}
{
   <insert_a_suppression_name_here>
   Memcheck:Leak
   match-leak-kinds: reachable
   fun:calloc
   fun:objc_msgSend_stret
   fun:_os_object_alloc_realized
   fun:_xpc_string_create
   fun:xpc_dictionary_set_string
   fun:-[CFPrefsSearchListSource synchronouslySendDaemonMessage:andAgentMessage:andDirectMessage:replyHandler:]
   fun:-[_CFXPreferences currentUserHasInvalidHomeDirectory]
   fun:_CFPrefsEncodeValueIntoMessage
   fun:-[CFPrefsPlistSource createSynchronizeMessage]
   fun:-[CFPrefsPlistSource volatilizeIfInvalidHomeDir]
   fun:__isOnDirectModeBlackList_block_invoke
   fun:-[CFPrefsPlistSource createRequestNewContentMessageForDaemon:]
}
{
   <insert_a_suppression_name_here>
   Memcheck:Leak
   match-leak-kinds: reachable
   fun:calloc
   fun:objc_msgSend_stret
   fun:_os_object_alloc_realized
   fun:_xpc_string_create
   fun:xpc_dictionary_set_string
   fun:-[CFPrefsSearchListSource synchronouslySendDaemonMessage:andAgentMessage:andDirectMessage:replyHandler:]
   fun:-[_CFXPreferences currentUserHasInvalidHomeDirectory]
   fun:_CFPrefsEncodeValueIntoMessage
   fun:-[CFPrefsPlistSource createSynchronizeMessage]
   fun:-[CFPrefsPlistSource volatilizeIfInvalidHomeDir]
   fun:__isOnDirectModeBlackList_block_invoke
   fun:-[CFPrefsPlistSource createRequestNewContentMessageForDaemon:]
}
{
   <insert_a_suppression_name_here>
   Memcheck:Leak
   match-leak-kinds: reachable
   fun:calloc
   fun:objc_msgSend_stret
   fun:_os_object_alloc_realized
   fun:_xpc_string_create
   fun:xpc_dictionary_set_string
   fun:-[CFPrefsSearchListSource synchronouslySendDaemonMessage:andAgentMessage:andDirectMessage:replyHandler:]
   fun:_CFUnsandboxedHomeDirectoryForCurrentUser
   fun:_CFPrefsEncodeValueIntoMessage
   fun:-[CFPrefsPlistSource createSynchronizeMessage]
   fun:-[CFPrefsPlistSource volatilizeIfInvalidHomeDir]
   fun:__isOnDirectModeBlackList_block_invoke
   fun:-[CFPrefsPlistSource createRequestNewContentMessageForDaemon:]
}
{
   <insert_a_suppression_name_here>
   Memcheck:Leak
   match-leak-kinds: reachable
   fun:calloc
   fun:objc_msgSend_stret
   fun:_os_object_alloc_realized
   fun:dispatch_mach_msg_create
   fun:_xpc_serializer_pack
   fun:_xpc_pipe_pack_message
   fun:_xpc_pipe_routine
   fun:xpc_pipe_routine_with_flags
   fun:_xpc_interface_routine
   fun:vproc_swap_complex
   fun:vproc_swap_string
   fun:-[CFPrefsPlistSource handleReply:toRequestNewDataMessage:onConnection:retryCount:error:]
}
{
   <insert_a_suppression_name_here>
   Memcheck:Leak
   match-leak-kinds: reachable
   fun:malloc
   fun:protocol_getProperty
   fun:_method_getImplementationAndName
   fun:_ZL10free_classP10objc_class
   fun:objc_msgLookup
   fun:_ZN4dyldL12notifySingleE17dyld_image_statesPK11ImageLoaderPNS1_21InitializerTimingListE
   fun:_ZN11ImageLoader23recursiveInitializationERKNS_11LinkContextEjPKcRNS_21InitializerTimingListERNS_15UninitedUpwardsE
   fun:_ZN11ImageLoader19processInitializersERKNS_11LinkContextEjRNS_21InitializerTimingListERNS_15UninitedUpwardsE
   fun:_ZN11ImageLoader19processInitializersERKNS_11LinkContextEjRNS_21InitializerTimingListERNS_15UninitedUpwardsE
   fun:_ZN11ImageLoader15runInitializersERKNS_11LinkContextERNS_21InitializerTimingListE
   fun:_ZN4dyld24initializeMainExecutableEv
   fun:_ZN4dyld5_mainEPK12macho_headermiPPKcS5_S5_Pm
}
{
   <insert_a_suppression_name_here>
   Memcheck:Leak
   match-leak-kinds: reachable
   fun:malloc
   fun:_xpc_malloc
   fun:_xpc_dictionary_insert
   fun:xpc_dictionary_set_string
   fun:-[CFPrefsSearchListSource synchronouslySendDaemonMessage:andAgentMessage:andDirectMessage:replyHandler:]
   fun:_CFUnsandboxedHomeDirectoryForCurrentUser
   fun:_CFPrefsEncodeValueIntoMessage
   fun:-[CFPrefsPlistSource createSynchronizeMessage]
   fun:-[CFPrefsPlistSource volatilizeIfInvalidHomeDir]
   fun:__isOnDirectModeBlackList_block_invoke
   fun:-[CFPrefsPlistSource createRequestNewContentMessageForDaemon:]
   fun:generationCountFromListOfSources
}
{
   <insert_a_suppression_name_here>
   Memcheck:Leak
   match-leak-kinds: reachable
   fun:malloc_zone_malloc
   fun:resolveAbsoluteURLStringBuffer
   fun:resolveAbsoluteURLString
   fun:CFUniCharGetNumberOfPlanesForUnicodePropertyData
   fun:CFUniCharDecomposeWithErrorLocation
   fun:_CFBundleCopyBundleURLForExecutableURL
   fun:CreateStringFromFileSystemRepresentationByAddingPercentEscapes
   fun:CreateStringFromFileSystemRepresentationByAddingPercentEscapes
   fun:_CFURLCreateWithFileSystemPath
   fun:CFURLGetString
   fun:CFURLCopyAbsoluteURL
   fun:CFStringFindWithOptionsAndLocale
}
{
   <insert_a_suppression_name_here>
   Memcheck:Leak
   match-leak-kinds: reachable
   fun:malloc
   fun:_xpc_malloc
   fun:_xpc_dictionary_insert
   fun:xpc_dictionary_set_string
   fun:-[CFPrefsSearchListSource synchronouslySendDaemonMessage:andAgentMessage:andDirectMessage:replyHandler:]
   fun:-[_CFXPreferences currentUserHasInvalidHomeDirectory]
   fun:_CFPrefsEncodeValueIntoMessage
   fun:-[CFPrefsPlistSource createSynchronizeMessage]
   fun:-[CFPrefsPlistSource volatilizeIfInvalidHomeDir]
   fun:__isOnDirectModeBlackList_block_invoke
   fun:-[CFPrefsPlistSource createRequestNewContentMessageForDaemon:]
   fun:generationCountFromListOfSources
}
{
   <insert_a_suppression_name_here>
   Memcheck:Leak
   match-leak-kinds: reachable
   fun:malloc
   fun:_xpc_malloc
   fun:_xpc_dictionary_insert
   fun:xpc_dictionary_set_int64
   fun:-[_CFXPreferences currentUserHasInvalidHomeDirectory]
   fun:_CFPrefsEncodeValueIntoMessage
   fun:-[CFPrefsPlistSource createSynchronizeMessage]
   fun:-[CFPrefsPlistSource volatilizeIfInvalidHomeDir]
   fun:__isOnDirectModeBlackList_block_invoke
   fun:-[CFPrefsPlistSource createRequestNewContentMessageForDaemon:]
   fun:generationCountFromListOfSources
   fun:-[CFPrefsSearchListSource alreadylocked_generationCountFromListOfSources:count:]
}
{
   <insert_a_suppression_name_here>
   Memcheck:Leak
   match-leak-kinds: reachable
   fun:calloc
   fun:__si_module_static_search_block_invoke
   fun:_dispatch_client_callout
   fun:_dispatch_once_callout
   fun:si_module_static_search
   fun:si_module_with_name
   fun:si_search
   fun:getpwuid_r
   fun:_CFRuntimeBridgeClasses
   fun:__CFInitialize
   fun:_ZN16ImageLoaderMachO11doImageInitERKN11ImageLoader11LinkContextE
   fun:_ZN16ImageLoaderMachO16doInitializationERKN11ImageLoader11LinkContextE
}
{
   <insert_a_suppression_name_here>
   Memcheck:Leak
   match-leak-kinds: reachable
   fun:malloc
   fun:_xpc_malloc
   fun:_xpc_dictionary_insert
   fun:xpc_dictionary_set_string
   fun:-[CFPrefsSearchListSource synchronouslySendDaemonMessage:andAgentMessage:andDirectMessage:replyHandler:]
   fun:-[_CFXPreferences currentUserHasInvalidHomeDirectory]
   fun:_CFPrefsEncodeValueIntoMessage
   fun:-[CFPrefsPlistSource createSynchronizeMessage]
   fun:-[CFPrefsPlistSource volatilizeIfInvalidHomeDir]
   fun:__isOnDirectModeBlackList_block_invoke
   fun:-[CFPrefsPlistSource createRequestNewContentMessageForDaemon:]
   fun:generationCountFromListOfSources
}
{
   <insert_a_suppression_name_here>
   Memcheck:Leak
   match-leak-kinds: reachable
   fun:malloc_zone_calloc
   fun:__NSSingleObjectArrayI_new
   fun:_CFBundleCreate
   fun:CFStringFindWithOptionsAndLocale
   fun:-[CFPrefsSource alreadylocked_copyKeyList]
   fun:-[CFPrefsSearchListSource addManagedSourceForIdentifier:user:]
   fun:__108-[_CFXPreferences(SearchListAdditions) withSearchListForIdentifier:container:cloudConfigurationURL:perform:]_block_invoke
   fun:__108-[_CFXPreferences(SearchListAdditions) withSearchListForIdentifier:container:cloudConfigurationURL:perform:]_block_invoke
   fun:-[NSUserDefaults(NSUserDefaults) init]
   fun:+[NSUserDefaults(NSUserDefaults) standardUserDefaults]
   fun:+[NSApplication initialize]
   fun:_objc_addWillInitializeClassFunc
}
{
   <insert_a_suppression_name_here>
   Memcheck:Leak
   match-leak-kinds: reachable
   fun:malloc_zone_malloc
   fun:_CFGetHandleForInsertedOrInterposingLibrary
   fun:__CFSetCharToUniCharFunc
   fun:__CFSetCharToUniCharFunc
   fun:_CFStringGetUserDefaultEncoding
   fun:_ZN16ImageLoaderMachO11doImageInitERKN11ImageLoader11LinkContextE
   fun:_ZN16ImageLoaderMachO16doInitializationERKN11ImageLoader11LinkContextE
   fun:_ZN11ImageLoader23recursiveInitializationERKNS_11LinkContextEjPKcRNS_21InitializerTimingListERNS_15UninitedUpwardsE
   fun:_ZN11ImageLoader23recursiveInitializationERKNS_11LinkContextEjPKcRNS_21InitializerTimingListERNS_15UninitedUpwardsE
   fun:_ZN11ImageLoader23recursiveInitializationERKNS_11LinkContextEjPKcRNS_21InitializerTimingListERNS_15UninitedUpwardsE
   fun:_ZN11ImageLoader23recursiveInitializationERKNS_11LinkContextEjPKcRNS_21InitializerTimingListERNS_15UninitedUpwardsE
   fun:_ZN11ImageLoader23recursiveInitializationERKNS_11LinkContextEjPKcRNS_21InitializerTimingListERNS_15UninitedUpwardsE
}
{
   <insert_a_suppression_name_here>
   Memcheck:Leak
   match-leak-kinds: reachable
   fun:malloc
   fun:_NSInitializePlatform
   fun:objc_msgLookup_fpret
   fun:_ZN4dyldL12notifySingleE17dyld_image_statesPK11ImageLoaderPNS1_21InitializerTimingListE
   fun:_ZN11ImageLoader23recursiveInitializationERKNS_11LinkContextEjPKcRNS_21InitializerTimingListERNS_15UninitedUpwardsE
   fun:_ZN11ImageLoader23recursiveInitializationERKNS_11LinkContextEjPKcRNS_21InitializerTimingListERNS_15UninitedUpwardsE
   fun:_ZN11ImageLoader23recursiveInitializationERKNS_11LinkContextEjPKcRNS_21InitializerTimingListERNS_15UninitedUpwardsE
   fun:_ZN11ImageLoader23recursiveInitializationERKNS_11LinkContextEjPKcRNS_21InitializerTimingListERNS_15UninitedUpwardsE
   fun:_ZN11ImageLoader23recursiveInitializationERKNS_11LinkContextEjPKcRNS_21InitializerTimingListERNS_15UninitedUpwardsE
   fun:_ZN11ImageLoader23recursiveInitializationERKNS_11LinkContextEjPKcRNS_21InitializerTimingListERNS_15UninitedUpwardsE
   fun:_ZN11ImageLoader19processInitializersERKNS_11LinkContextEjRNS_21InitializerTimingListERNS_15UninitedUpwardsE
   fun:_ZN11ImageLoader15runInitializersERKNS_11LinkContextERNS_21InitializerTimingListE
}
{
   <insert_a_suppression_name_here>
   Memcheck:Leak
   match-leak-kinds: reachable
   fun:calloc
   fun:_ZL13getClass_implPKc
   fun:_ZN11objc_object27sidetable_clearDeallocatingEv
   fun:_ZL19_finishInitializingP10objc_classS0_
   fun:lookUpImpOrForward
   fun:__56+[_CFXNotificationObjectRegistration stringKeyCallbacks]_block_invoke
   fun:__CFStringAppendFormatCore
   fun:__CFStringAppendFormatCore
   fun:__CFStringAppendFormatCore
   fun:__CFStringAppendFormatCore
   fun:__CFStringAppendFormatCore
   fun:__108-[_CFXPreferences(SearchListAdditions) withSearchListForIdentifier:container:cloudConfigurationURL:perform:]_block_invoke.249
}
{
   <insert_a_suppression_name_here>
   Memcheck:Leak
   match-leak-kinds: reachable
   fun:calloc
   fun:_ZL13getClass_implPKc
   fun:_ZN11objc_object27sidetable_clearDeallocatingEv
   fun:_ZL19_finishInitializingP10objc_classS0_
   fun:lookUpImpOrForward
   fun:-[CFPrefsPlistSource attachAccessTokenToMessage:accessType:]
   fun:_CFPrefsEncodeValueIntoMessage
   fun:-[CFPrefsPlistSource createSynchronizeMessage]
   fun:-[CFPrefsPlistSource volatilizeIfInvalidHomeDir]
   fun:__isOnDirectModeBlackList_block_invoke
   fun:-[CFPrefsPlistSource createRequestNewContentMessageForDaemon:]
   fun:generationCountFromListOfSources
}
{
   <insert_a_suppression_name_here>
   Memcheck:Leak
   match-leak-kinds: reachable
   fun:calloc
   fun:_ZL13getClass_implPKc
   fun:_ZN11objc_object27sidetable_clearDeallocatingEv
   fun:_ZL19_finishInitializingP10objc_classS0_
   fun:lookUpImpOrForward
   fun:-[CFPrefsPlistSource createSynchronizeMessage]
   fun:__isOnDirectModeBlackList_block_invoke
   fun:-[CFPrefsPlistSource createRequestNewContentMessageForDaemon:]
   fun:generationCountFromListOfSources
   fun:-[CFPrefsSearchListSource alreadylocked_generationCountFromListOfSources:count:]
   fun:-[CFPrefsSearchListSource alreadylocked_generationCountFromListOfSources:count:]
   fun:__CFStringAppendFormatCore
}
{
   <insert_a_suppression_name_here>
   Memcheck:Leak
   match-leak-kinds: reachable
   fun:calloc
   fun:_ZL13getClass_implPKc
   fun:_ZN11objc_object27sidetable_clearDeallocatingEv
   fun:_ZL19_finishInitializingP10objc_classS0_
   fun:lookUpImpOrForward
   fun:-[CFPrefsPlistSource volatilizeIfInvalidHomeDir]
   fun:__isOnDirectModeBlackList_block_invoke
   fun:-[CFPrefsPlistSource createRequestNewContentMessageForDaemon:]
   fun:generationCountFromListOfSources
   fun:-[CFPrefsSearchListSource alreadylocked_generationCountFromListOfSources:count:]
   fun:-[CFPrefsSearchListSource alreadylocked_generationCountFromListOfSources:count:]
   fun:__CFStringAppendFormatCore
}
{
   <insert_a_suppression_name_here>
   Memcheck:Leak
   match-leak-kinds: reachable
   fun:calloc
   fun:objc_msgSend_stret
   fun:_os_object_alloc_realized
   fun:xpc_dictionary_create
   fun:-[_CFXPreferences currentUserHasInvalidHomeDirectory]
   fun:_CFPrefsEncodeValueIntoMessage
   fun:-[CFPrefsPlistSource createSynchronizeMessage]
   fun:-[CFPrefsPlistSource volatilizeIfInvalidHomeDir]
   fun:__isOnDirectModeBlackList_block_invoke
   fun:-[CFPrefsPlistSource createRequestNewContentMessageForDaemon:]
   fun:generationCountFromListOfSources
   fun:-[CFPrefsSearchListSource alreadylocked_generationCountFromListOfSources:count:]
}
{
   <insert_a_suppression_name_here>
   Memcheck:Leak
   match-leak-kinds: possible
   fun:calloc
   fun:_ZL33realizeClassMaybeSwiftMaybeRelockP10objc_classR8mutex_ttILb0EEb
   fun:_ZL32adjustCustomFlagsForMethodChangeP10objc_classP8method_t
   fun:property_copyAttributeValue
   fun:_ZL10free_classP10objc_class
   fun:objc_msgLookup
   fun:_ZN4dyldL12notifySingleE17dyld_image_statesPK11ImageLoaderPNS1_21InitializerTimingListE
   fun:_ZN11ImageLoader23recursiveInitializationERKNS_11LinkContextEjPKcRNS_21InitializerTimingListERNS_15UninitedUpwardsE
   fun:_ZN11ImageLoader19processInitializersERKNS_11LinkContextEjRNS_21InitializerTimingListERNS_15UninitedUpwardsE
   fun:_ZN11ImageLoader19processInitializersERKNS_11LinkContextEjRNS_21InitializerTimingListERNS_15UninitedUpwardsE
   fun:_ZN11ImageLoader15runInitializersERKNS_11LinkContextERNS_21InitializerTimingListE
   fun:_ZN4dyld24initializeMainExecutableEv
}
{
   <insert_a_suppression_name_here>
   Memcheck:Leak
   match-leak-kinds: possible
   fun:calloc
   fun:_ZL33realizeClassMaybeSwiftMaybeRelockP10objc_classR8mutex_ttILb0EEb
   fun:_ZL32adjustCustomFlagsForMethodChangeP10objc_classP8method_t
   fun:property_copyAttributeValue
   fun:_ZL10free_classP10objc_class
   fun:objc_msgLookup
   fun:_ZN4dyldL12notifySingleE17dyld_image_statesPK11ImageLoaderPNS1_21InitializerTimingListE
   fun:_ZN11ImageLoader23recursiveInitializationERKNS_11LinkContextEjPKcRNS_21InitializerTimingListERNS_15UninitedUpwardsE
   fun:_ZN11ImageLoader19processInitializersERKNS_11LinkContextEjRNS_21InitializerTimingListERNS_15UninitedUpwardsE
   fun:_ZN11ImageLoader19processInitializersERKNS_11LinkContextEjRNS_21InitializerTimingListERNS_15UninitedUpwardsE
   fun:_ZN11ImageLoader15runInitializersERKNS_11LinkContextERNS_21InitializerTimingListE
   fun:_ZN4dyld24initializeMainExecutableEv
}
{
   <insert_a_suppression_name_here>
   Memcheck:Leak
   match-leak-kinds: possible
   fun:malloc
   fun:_ZL24realizeClassWithoutSwiftP10objc_classS0_
   fun:_ZL32adjustCustomFlagsForMethodChangeP10objc_classP8method_t
   fun:property_copyAttributeValue
   fun:_ZL10free_classP10objc_class
   fun:objc_msgLookup
   fun:_ZN4dyldL12notifySingleE17dyld_image_statesPK11ImageLoaderPNS1_21InitializerTimingListE
   fun:_ZN11ImageLoader23recursiveInitializationERKNS_11LinkContextEjPKcRNS_21InitializerTimingListERNS_15UninitedUpwardsE
   fun:_ZN11ImageLoader19processInitializersERKNS_11LinkContextEjRNS_21InitializerTimingListERNS_15UninitedUpwardsE
   fun:_ZN11ImageLoader19processInitializersERKNS_11LinkContextEjRNS_21InitializerTimingListERNS_15UninitedUpwardsE
   fun:_ZN11ImageLoader15runInitializersERKNS_11LinkContextERNS_21InitializerTimingListE
   fun:_ZN4dyld24initializeMainExecutableEv
}
{
   <insert_a_suppression_name_here>
   Memcheck:Leak
   match-leak-kinds: reachable
   fun:malloc
   fun:_ZL11weak_resizeP12weak_table_tm
   fun:_ZN11objc_object27sidetable_clearDeallocatingEv
   fun:_ZL19_finishInitializingP10objc_classS0_
   fun:lookUpImpOrForward
   fun:_li_auto_os_release
   fun:ds_user_byuid
   fun:si_user_byuid
   fun:search_item_bynumber
   fun:search_user_byuid
   fun:si_user_byuid
   fun:getpwuid_r
}
{
   <insert_a_suppression_name_here>
   Memcheck:Leak
   match-leak-kinds: reachable
   fun:malloc_zone_malloc
   fun:resolveAbsoluteURLStringBuffer
   fun:resolveAbsoluteURLString
   fun:CFUniCharGetNumberOfPlanesForUnicodePropertyData
   fun:CFUniCharDecomposeWithErrorLocation
   fun:_CFBundleCopyBundleURLForExecutableURL
   fun:CreateStringFromFileSystemRepresentationByAddingPercentEscapes
   fun:CreateStringFromFileSystemRepresentationByAddingPercentEscapes
   fun:_CFURLCreateWithFileSystemPath
   fun:CFURLGetString
   fun:CFURLCopyAbsoluteURL
   fun:CFStringFindWithOptionsAndLocale
}
{
   <insert_a_suppression_name_here>
   Memcheck:Leak
   match-leak-kinds: reachable
   fun:calloc
   fun:CFBasicHashCreate
   fun:CFBasicHashCreate
   fun:_NSThreadGet0
   fun:_NSInitializePlatform
   fun:objc_msgLookup_fpret
   fun:_ZN4dyldL12notifySingleE17dyld_image_statesPK11ImageLoaderPNS1_21InitializerTimingListE
   fun:_ZN11ImageLoader23recursiveInitializationERKNS_11LinkContextEjPKcRNS_21InitializerTimingListERNS_15UninitedUpwardsE
   fun:_ZN11ImageLoader23recursiveInitializationERKNS_11LinkContextEjPKcRNS_21InitializerTimingListERNS_15UninitedUpwardsE
   fun:_ZN11ImageLoader23recursiveInitializationERKNS_11LinkContextEjPKcRNS_21InitializerTimingListERNS_15UninitedUpwardsE
   fun:_ZN11ImageLoader23recursiveInitializationERKNS_11LinkContextEjPKcRNS_21InitializerTimingListERNS_15UninitedUpwardsE
   fun:_ZN11ImageLoader23recursiveInitializationERKNS_11LinkContextEjPKcRNS_21InitializerTimingListERNS_15UninitedUpwardsE
}
{
   <insert_a_suppression_name_here>
   Memcheck:Leak
   match-leak-kinds: reachable
   fun:malloc
   fun:__NSDictionaryM_new
   fun:_dispatch_client_callout
   fun:_dispatch_once_callout
   fun:__NSDictionaryM_new
   fun:-[__NSPlaceholderDictionary init]
   fun:__CFBasicHashGetPtrIndex_block_invoke
   fun:CFBasicHashCreate
   fun:____NSThreads_block_invoke
   fun:_dispatch_client_callout
   fun:_dispatch_once_callout
   fun:_NSThreadGet0
}
{
   <insert_a_suppression_name_here>
   Memcheck:Leak
   match-leak-kinds: reachable
   fun:malloc_zone_memalign
   fun:getSharedCachePreoptimizedProtocol
   fun:CFStringFindWithOptionsAndLocale
   fun:+[NSUserDefaults(NSUserDefaults) standardUserDefaults]
   fun:+[NSApplication initialize]
   fun:_objc_addWillInitializeClassFunc
   fun:_ZN13list_array_ttI8method_t13method_list_t24method_list_t_authed_ptrE11attachListsEPKPS1_j
   fun:_ZL24realizeClassWithoutSwiftP10objc_classS0_
   fun:-[NSObject dealloc]
   fun:lookUpImpOrForward
   fun:mlx_init
   fun:main
}
{
   <insert_a_suppression_name_here>
   Memcheck:Leak
   match-leak-kinds: reachable
   fun:calloc
   fun:__si_module_static_cache_block_invoke
   fun:_dispatch_client_callout
   fun:_dispatch_once_callout
   fun:si_module_static_cache
   fun:si_module_with_name
   fun:si_module_config_modules_for_category
   fun:__si_module_static_search_block_invoke
   fun:_dispatch_client_callout
   fun:_dispatch_once_callout
   fun:si_module_static_search
   fun:si_module_with_name
}
{
   <insert_a_suppression_name_here>
   Memcheck:Leak
   match-leak-kinds: reachable
   fun:malloc
   fun:_ZN4objc7scanner5MixinINS_11CoreScannerELNS_14SelectorBundleE2EL_Z15PrintCustomCoreELNS0_5ScopeE2EE20setCustomRecursivelyEP10objc_classb
   fun:protocol_copyPropertyList2
   fun:_method_getImplementationAndName
   fun:_ZL10free_classP10objc_class
   fun:objc_msgLookup
   fun:_ZN4dyldL12notifySingleE17dyld_image_statesPK11ImageLoaderPNS1_21InitializerTimingListE
   fun:_ZN11ImageLoader23recursiveInitializationERKNS_11LinkContextEjPKcRNS_21InitializerTimingListERNS_15UninitedUpwardsE
   fun:_ZN11ImageLoader19processInitializersERKNS_11LinkContextEjRNS_21InitializerTimingListERNS_15UninitedUpwardsE
   fun:_ZN11ImageLoader19processInitializersERKNS_11LinkContextEjRNS_21InitializerTimingListERNS_15UninitedUpwardsE
   fun:_ZN11ImageLoader15runInitializersERKNS_11LinkContextERNS_21InitializerTimingListE
   fun:_ZN4dyld24initializeMainExecutableEv
}
{
   <insert_a_suppression_name_here>
   Memcheck:Leak
   match-leak-kinds: reachable
   fun:calloc
   fun:_os_trace_calloc
   fun:_os_trace_dylib_or_main_executable_was_loaded
   fun:_ZN4dyld19registerAddCallbackEPFvPK11mach_headerlE
   fun:_dyld_register_func_for_add_image
   fun:_os_trace_init_slow
   fun:_dispatch_client_callout
   fun:_dispatch_once_callout
   fun:_os_activity_create_addr
   fun:ds_user_byuid
   fun:si_user_byuid
   fun:search_item_bynumber
}
